Archive member included because of file (symbol)

libbb/lib.a(appletlib.o)      applets/built-in.o (lbb_main)
libbb/lib.a(bb_basename.o)    libbb/lib.a(appletlib.o) (bb_basename)
libbb/lib.a(bb_strtonum.o)    libbb/lib.a(appletlib.o) (bb_strtoul)
libbb/lib.a(concat_path_file.o)
                              libbb/lib.a(appletlib.o) (concat_path_file)
libbb/lib.a(default_error_retval.o)
                              libbb/lib.a(appletlib.o) (xfunc_error_retval)
libbb/lib.a(error_msg_and_die.o)
                              libbb/lib.a(appletlib.o) (bb_error_msg_and_die)
libbb/lib.a(full_write.o)     libbb/lib.a(appletlib.o) (full_write)
libbb/lib.a(get_last_path_component.o)
                              libbb/lib.a(appletlib.o) (bb_get_last_path_component_nostrip)
libbb/lib.a(last_char_is.o)   libbb/lib.a(concat_path_file.o) (last_char_is)
libbb/lib.a(messages.o)       libbb/lib.a(appletlib.o) (bb_busybox_exec_path)
libbb/lib.a(perror_msg.o)     libbb/lib.a(appletlib.o) (bb_simple_perror_msg)
libbb/lib.a(perror_msg_and_die.o)
                              libbb/lib.a(appletlib.o) (bb_perror_msg_and_die)
libbb/lib.a(ptr_to_globals.o)
                              libbb/lib.a(appletlib.o) (bb_errno)
libbb/lib.a(safe_write.o)     libbb/lib.a(full_write.o) (safe_write)
libbb/lib.a(skip_whitespace.o)
                              libbb/lib.a(appletlib.o) (skip_whitespace)
libbb/lib.a(verror_msg.o)     libbb/lib.a(error_msg_and_die.o) (bb_verror_msg)
libbb/lib.a(wfopen.o)         libbb/lib.a(appletlib.o) (fopen_for_read)
libbb/lib.a(xfunc_die.o)      libbb/lib.a(appletlib.o) (xfunc_die)
libbb/lib.a(xfuncs.o)         libbb/lib.a(appletlib.o) (get_terminal_width_height)
libbb/lib.a(xfuncs_printf.o)  libbb/lib.a(appletlib.o) (malloc_or_warn)
libbb/lib.a(xreadlink.o)      libbb/lib.a(appletlib.o) (xmalloc_readlink)
libbb/lib.a(copyfd.o)         libbb/lib.a(xfuncs_printf.o) (bb_copyfd_eof)
libbb/lib.a(error_msg.o)      libbb/lib.a(xfuncs_printf.o) (bb_error_msg)
libbb/lib.a(read.o)           libbb/lib.a(copyfd.o) (safe_read)
libbb/lib.a(safe_poll.o)      libbb/lib.a(read.o) (safe_poll)
loginutils/lib.a(login.o)     libbb/lib.a(appletlib.o) (login_main)
loginutils/lib.a(passwd.o)    libbb/lib.a(appletlib.o) (passwd_main)
miscutils/lib.a(bbconfig.o)   libbb/lib.a(appletlib.o) (bbconfig_main)
miscutils/lib.a(mountpoint.o)
                              libbb/lib.a(appletlib.o) (mountpoint_main)
miscutils/lib.a(mt.o)         libbb/lib.a(appletlib.o) (mt_main)
miscutils/lib.a(rx.o)         libbb/lib.a(appletlib.o) (rx_main)
miscutils/lib.a(setsid.o)     libbb/lib.a(appletlib.o) (setsid_main)
modutils/lib.a(insmod.o)      libbb/lib.a(appletlib.o) (insmod_main)
modutils/lib.a(lsmod.o)       libbb/lib.a(appletlib.o) (lsmod_main)
modutils/lib.a(rmmod.o)       libbb/lib.a(appletlib.o) (rmmod_main)
networking/lib.a(arp.o)       libbb/lib.a(appletlib.o) (arp_main)
networking/lib.a(arping.o)    libbb/lib.a(appletlib.o) (arping_main)
networking/lib.a(hostname.o)  libbb/lib.a(appletlib.o) (hostname_main)
networking/lib.a(ifconfig.o)  libbb/lib.a(appletlib.o) (ifconfig_main)
networking/lib.a(ifenslave.o)
                              libbb/lib.a(appletlib.o) (ifenslave_main)
networking/lib.a(ifupdown.o)  libbb/lib.a(appletlib.o) (ifupdown_main)
networking/lib.a(interface.o)
                              networking/lib.a(ifconfig.o) (in_ib)
networking/lib.a(ip.o)        libbb/lib.a(appletlib.o) (ipaddr_main)
networking/lib.a(netstat.o)   libbb/lib.a(appletlib.o) (netstat_main)
networking/lib.a(ping.o)      libbb/lib.a(appletlib.o) (ping_main)
networking/lib.a(route.o)     networking/lib.a(netstat.o) (bb_displayroutes)
networking/lib.a(sendmail.o)  libbb/lib.a(appletlib.o) (sendgetmail_main)
networking/lib.a(telnetd.o)   libbb/lib.a(appletlib.o) (telnetd_main)
networking/lib.a(tftp.o)      libbb/lib.a(appletlib.o) (tftp_main)
networking/lib.a(traceroute.o)
                              libbb/lib.a(appletlib.o) (traceroute_main)
networking/lib.a(vconfig.o)   libbb/lib.a(appletlib.o) (vconfig_main)
networking/lib.a(wget.o)      libbb/lib.a(appletlib.o) (wget_main)
networking/libiproute/lib.a(ip_parse_common_args.o)
                              networking/lib.a(ip.o) (ip_parse_common_args)
networking/libiproute/lib.a(ipaddress.o)
                              networking/lib.a(ip.o) (do_ipaddr)
networking/libiproute/lib.a(iplink.o)
                              networking/lib.a(ip.o) (do_iplink)
networking/libiproute/lib.a(iproute.o)
                              networking/lib.a(ip.o) (do_iproute)
networking/libiproute/lib.a(libnetlink.o)
                              networking/libiproute/lib.a(ipaddress.o) (xrtnl_open)
networking/libiproute/lib.a(ll_addr.o)
                              networking/libiproute/lib.a(ipaddress.o) (ll_addr_n2a)
networking/libiproute/lib.a(ll_map.o)
                              networking/libiproute/lib.a(ipaddress.o) (ll_remember_index)
networking/libiproute/lib.a(ll_types.o)
                              networking/libiproute/lib.a(ipaddress.o) (ll_type_n2a)
networking/libiproute/lib.a(rt_names.o)
                              networking/libiproute/lib.a(iproute.o) (rtnl_rtprot_a2n)
networking/libiproute/lib.a(rtm_map.o)
                              networking/libiproute/lib.a(iproute.o) (rtnl_rtntype_n2a)
networking/libiproute/lib.a(utils.o)
                              networking/libiproute/lib.a(iplink.o) (get_integer)
networking/udhcp/lib.a(dhcpc.o)
                              libbb/lib.a(appletlib.o) (udhcpc_main)
networking/udhcp/lib.a(options.o)
                              networking/udhcp/lib.a(dhcpc.o) (dhcp_option_strings)
networking/udhcp/lib.a(packet.o)
                              networking/udhcp/lib.a(dhcpc.o) (udhcp_recv_kernel_packet)
networking/udhcp/lib.a(script.o)
                              networking/udhcp/lib.a(dhcpc.o) (udhcp_run_script)
networking/udhcp/lib.a(signalpipe.o)
                              networking/udhcp/lib.a(dhcpc.o) (udhcp_sp_setup)
networking/udhcp/lib.a(socket.o)
                              networking/udhcp/lib.a(dhcpc.o) (udhcp_read_interface)
networking/udhcp/lib.a(arpping.o)
                              networking/udhcp/lib.a(dhcpc.o) (arpping)
networking/udhcp/lib.a(clientpacket.o)
                              networking/udhcp/lib.a(dhcpc.o) (random_xid)
networking/udhcp/lib.a(clientsocket.o)
                              networking/udhcp/lib.a(dhcpc.o) (raw_socket)
networking/udhcp/lib.a(common.o)
                              networking/udhcp/lib.a(clientpacket.o) (MAC_BCAST_ADDR)
networking/udhcp/lib.a(domain_codec.o)
                              networking/udhcp/lib.a(script.o) (dname_dec)
procps/lib.a(kill.o)          libbb/lib.a(appletlib.o) (kill_main)
procps/lib.a(ps.o)            libbb/lib.a(appletlib.o) (ps_main)
procps/lib.a(top.o)           libbb/lib.a(appletlib.o) (top_main)
shell/lib.a(ash.o)            libbb/lib.a(appletlib.o) (ash_main)
shell/lib.a(ash_ptr_hack.o)   shell/lib.a(ash.o) (ash_ptr_to_globals_misc)
util-linux/lib.a(dmesg.o)     libbb/lib.a(appletlib.o) (dmesg_main)
util-linux/lib.a(mount.o)     libbb/lib.a(appletlib.o) (mount_main)
util-linux/lib.a(pivot_root.o)
                              libbb/lib.a(appletlib.o) (pivot_root_main)
util-linux/lib.a(script.o)    libbb/lib.a(appletlib.o) (script_main)
util-linux/lib.a(umount.o)    libbb/lib.a(appletlib.o) (umount_main)
archival/lib.a(bbunzip.o)     libbb/lib.a(appletlib.o) (gunzip_main)
archival/lib.a(gzip.o)        libbb/lib.a(appletlib.o) (gzip_main)
archival/lib.a(tar.o)         libbb/lib.a(appletlib.o) (tar_main)
archival/lib.a(unzip.o)       libbb/lib.a(appletlib.o) (unzip_main)
archival/libunarchive/lib.a(data_extract_all.o)
                              archival/lib.a(tar.o) (data_extract_all)
archival/libunarchive/lib.a(data_extract_to_stdout.o)
                              archival/lib.a(tar.o) (data_extract_to_stdout)
archival/libunarchive/lib.a(data_skip.o)
                              archival/libunarchive/lib.a(data_extract_all.o) (data_skip)
archival/libunarchive/lib.a(decompress_bunzip2.o)
                              libbb/lib.a(appletlib.o) (read_bunzip)
archival/libunarchive/lib.a(decompress_uncompress.o)
                              archival/lib.a(bbunzip.o) (unpack_Z_stream)
archival/libunarchive/lib.a(decompress_unlzma.o)
                              libbb/lib.a(read.o) (unpack_lzma_stream)
archival/libunarchive/lib.a(decompress_unzip.o)
                              archival/lib.a(unzip.o) (inflate_unzip)
archival/libunarchive/lib.a(filter_accept_reject_list.o)
                              archival/lib.a(tar.o) (filter_accept_reject_list)
archival/libunarchive/lib.a(find_list_entry.o)
                              archival/lib.a(tar.o) (find_list_entry)
archival/libunarchive/lib.a(get_header_tar.o)
                              archival/lib.a(tar.o) (get_header_tar)
archival/libunarchive/lib.a(get_header_tar_bz2.o)
                              archival/lib.a(tar.o) (get_header_tar_bz2)
archival/libunarchive/lib.a(get_header_tar_gz.o)
                              archival/lib.a(tar.o) (get_header_tar_gz)
archival/libunarchive/lib.a(get_header_tar_lzma.o)
                              archival/lib.a(tar.o) (get_header_tar_lzma)
archival/libunarchive/lib.a(header_list.o)
                              archival/lib.a(tar.o) (header_list)
archival/libunarchive/lib.a(header_verbose_list.o)
                              archival/lib.a(tar.o) (header_verbose_list)
archival/libunarchive/lib.a(init_handle.o)
                              archival/lib.a(tar.o) (init_handle)
archival/libunarchive/lib.a(open_transformer.o)
                              libbb/lib.a(read.o) (open_transformer)
archival/libunarchive/lib.a(seek_by_jump.o)
                              archival/libunarchive/lib.a(init_handle.o) (seek_by_jump)
archival/libunarchive/lib.a(seek_by_read.o)
                              archival/lib.a(tar.o) (seek_by_read)
archival/libunarchive/lib.a(data_align.o)
                              archival/libunarchive/lib.a(get_header_tar.o) (data_align)
archival/libunarchive/lib.a(filter_accept_all.o)
                              archival/libunarchive/lib.a(init_handle.o) (filter_accept_all)
archival/libunarchive/lib.a(header_skip.o)
                              archival/libunarchive/lib.a(init_handle.o) (header_skip)
console-tools/lib.a(reset.o)  libbb/lib.a(appletlib.o) (reset_main)
coreutils/lib.a(cat.o)        libbb/lib.a(appletlib.o) (cat_main)
coreutils/lib.a(chmod.o)      libbb/lib.a(appletlib.o) (chmod_main)
coreutils/lib.a(chown.o)      libbb/lib.a(appletlib.o) (chown_main)
coreutils/lib.a(cp.o)         libbb/lib.a(appletlib.o) (cp_main)
coreutils/lib.a(dd.o)         libbb/lib.a(appletlib.o) (dd_main)
coreutils/lib.a(df.o)         libbb/lib.a(appletlib.o) (df_main)
coreutils/lib.a(du.o)         libbb/lib.a(appletlib.o) (du_main)
coreutils/lib.a(echo.o)       libbb/lib.a(appletlib.o) (echo_main)
coreutils/lib.a(ln.o)         libbb/lib.a(appletlib.o) (ln_main)
coreutils/lib.a(ls.o)         libbb/lib.a(appletlib.o) (ls_main)
coreutils/lib.a(mkdir.o)      libbb/lib.a(appletlib.o) (mkdir_main)
coreutils/lib.a(mknod.o)      libbb/lib.a(appletlib.o) (mknod_main)
coreutils/lib.a(mv.o)         libbb/lib.a(appletlib.o) (mv_main)
coreutils/lib.a(nice.o)       libbb/lib.a(appletlib.o) (nice_main)
coreutils/lib.a(printf.o)     shell/lib.a(ash.o) (printf_main)
coreutils/lib.a(pwd.o)        libbb/lib.a(appletlib.o) (pwd_main)
coreutils/lib.a(realpath.o)   libbb/lib.a(appletlib.o) (realpath_main)
coreutils/lib.a(rm.o)         libbb/lib.a(appletlib.o) (rm_main)
coreutils/lib.a(sleep.o)      libbb/lib.a(appletlib.o) (sleep_main)
coreutils/lib.a(test.o)       shell/lib.a(ash.o) (test_main)
coreutils/lib.a(test_ptr_hack.o)
                              coreutils/lib.a(test.o) (test_ptr_to_statics)
coreutils/lib.a(touch.o)      libbb/lib.a(appletlib.o) (touch_main)
coreutils/lib.a(uname.o)      libbb/lib.a(appletlib.o) (uname_main)
coreutils/lib.a(usleep.o)     libbb/lib.a(appletlib.o) (usleep_main)
coreutils/libcoreutils/lib.a(cp_mv_stat.o)
                              coreutils/lib.a(cp.o) (cp_mv_stat2)
coreutils/libcoreutils/lib.a(getopt_mk_fifo_nod.o)
                              coreutils/lib.a(mknod.o) (getopt_mk_fifo_nod)
debianutils/lib.a(mktemp.o)   libbb/lib.a(appletlib.o) (mktemp_main)
debianutils/lib.a(pipe_progress.o)
                              libbb/lib.a(appletlib.o) (pipe_progress_main)
debianutils/lib.a(run_parts.o)
                              libbb/lib.a(appletlib.o) (run_parts_main)
debianutils/lib.a(start_stop_daemon.o)
                              libbb/lib.a(appletlib.o) (start_stop_daemon_main)
debianutils/lib.a(which.o)    libbb/lib.a(appletlib.o) (which_main)
editors/lib.a(awk.o)          libbb/lib.a(appletlib.o) (awk_main)
editors/lib.a(sed.o)          libbb/lib.a(appletlib.o) (sed_main)
findutils/lib.a(grep.o)       libbb/lib.a(appletlib.o) (grep_main)
init/lib.a(halt.o)            libbb/lib.a(appletlib.o) (halt_main)
init/lib.a(init.o)            libbb/lib.a(appletlib.o) (init_main)
init/lib.a(mesg.o)            libbb/lib.a(appletlib.o) (mesg_main)
libbb/lib.a(ask_confirmation.o)
                              coreutils/lib.a(mv.o) (bb_ask_confirmation)
libbb/lib.a(bb_askpass.o)     loginutils/lib.a(passwd.o) (bb_askpass)
libbb/lib.a(bb_do_delay.o)    loginutils/lib.a(login.o) (bb_do_delay)
libbb/lib.a(bb_pwd.o)         loginutils/lib.a(passwd.o) (bb_getpwuid)
libbb/lib.a(bb_strtod.o)      coreutils/lib.a(sleep.o) (bb_strtod)
libbb/lib.a(change_identity.o)
                              loginutils/lib.a(login.o) (change_identity)
libbb/lib.a(chomp.o)          archival/lib.a(unzip.o) (chomp)
libbb/lib.a(compare_string_array.o)
                              miscutils/lib.a(mt.o) (index_in_strings)
libbb/lib.a(concat_subpath_file.o)
                              coreutils/lib.a(du.o) (concat_subpath_file)
libbb/lib.a(copy_file.o)      coreutils/lib.a(cp.o) (copy_file)
libbb/lib.a(correct_password.o)
                              loginutils/lib.a(login.o) (correct_password)
libbb/lib.a(crc32.o)          archival/lib.a(gzip.o) (crc32_filltable)
libbb/lib.a(create_icmp6_socket.o)
                              networking/lib.a(ping.o) (create_icmp6_socket)
libbb/lib.a(create_icmp_socket.o)
                              networking/lib.a(ping.o) (create_icmp_socket)
libbb/lib.a(crypt_make_salt.o)
                              loginutils/lib.a(passwd.o) (crypt_make_salt)
libbb/lib.a(device_open.o)    init/lib.a(init.o) (device_open)
libbb/lib.a(execable.o)       debianutils/lib.a(which.o) (execable_file)
libbb/lib.a(fclose_nonstdin.o)
                              findutils/lib.a(grep.o) (fclose_if_not_stdin)
libbb/lib.a(fflush_stdout_and_exit.o)
                              miscutils/lib.a(rx.o) (fflush_stdout_and_exit)
libbb/lib.a(fgets_str.o)      networking/lib.a(netstat.o) (xmalloc_fgets_str)
libbb/lib.a(find_mount_point.o)
                              coreutils/lib.a(df.o) (find_mount_point)
libbb/lib.a(find_pid_by_name.o)
                              procps/lib.a(kill.o) (find_pid_by_name)
libbb/lib.a(get_line_from_file.o)
                              editors/lib.a(sed.o) (bb_get_chunk_from_file)
libbb/lib.a(getopt32.o)       coreutils/lib.a(cat.o) (bb_argv_dash)
libbb/lib.a(getpty.o)         networking/lib.a(telnetd.o) (xgetpty)
libbb/lib.a(herror_msg.o)     util-linux/lib.a(mount.o) (bb_herror_msg)
libbb/lib.a(herror_msg_and_die.o)
                              networking/lib.a(arp.o) (bb_herror_msg_and_die)
libbb/lib.a(human_readable.o)
                              coreutils/lib.a(df.o) (make_human_readable_str)
libbb/lib.a(inet_common.o)    networking/lib.a(interface.o) (INET_resolve)
libbb/lib.a(info_msg.o)       loginutils/lib.a(passwd.o) (bb_info_msg)
libbb/lib.a(inode_hash.o)     coreutils/lib.a(du.o) (is_in_ino_dev_hashtable)
libbb/lib.a(isdirectory.o)    coreutils/lib.a(ln.o) (is_directory)
libbb/lib.a(kernel_version.o)
                              modutils/lib.a(rmmod.o) (get_linux_version_code)
libbb/lib.a(lineedit.o)       shell/lib.a(ash.o) (read_line_input)
libbb/lib.a(lineedit_ptr_hack.o)
                              libbb/lib.a(lineedit.o) (lineedit_ptr_to_statics)
libbb/lib.a(llist.o)          networking/lib.a(ifupdown.o) (llist_add_to)
libbb/lib.a(login.o)          networking/lib.a(telnetd.o) (print_login_issue)
libbb/lib.a(loop.o)           util-linux/lib.a(mount.o) (del_loop)
libbb/lib.a(make_directory.o)
                              archival/lib.a(unzip.o) (bb_make_directory)
libbb/lib.a(makedev.o)        archival/libunarchive/lib.a(get_header_tar.o) (bb_makedev)
libbb/lib.a(match_fstype.o)   util-linux/lib.a(mount.o) (match_fstype)
libbb/lib.a(mode_string.o)    archival/libunarchive/lib.a(header_verbose_list.o) (bb_mode_string)
libbb/lib.a(mtab_file.o)      util-linux/lib.a(mount.o) (bb_path_mtab_file)
libbb/lib.a(obscure.o)        loginutils/lib.a(passwd.o) (obscure)
libbb/lib.a(parse_config.o)   networking/lib.a(hostname.o) (config_open2)
libbb/lib.a(parse_mode.o)     shell/lib.a(ash.o) (bb_parse_mode)
libbb/lib.a(perror_nomsg_and_die.o)
                              util-linux/lib.a(pivot_root.o) (bb_perror_nomsg_and_die)
libbb/lib.a(pidfile.o)        networking/udhcp/lib.a(dhcpc.o) (write_pidfile)
libbb/lib.a(print_flags.o)    networking/lib.a(arp.o) (print_flags_separated)
libbb/lib.a(printable.o)      networking/lib.a(netstat.o) (fputc_printable)
libbb/lib.a(process_escape_sequence.o)
                              shell/lib.a(ash.o) (bb_process_escape_sequence)
libbb/lib.a(procps.o)         procps/lib.a(top.o) (clear_username_cache)
libbb/lib.a(pw_encrypt.o)     loginutils/lib.a(passwd.o) (pw_encrypt)
libbb/lib.a(recursive_action.o)
                              modutils/lib.a(insmod.o) (recursive_action)
libbb/lib.a(remove_file.o)    coreutils/lib.a(mv.o) (remove_file)
libbb/lib.a(run_shell.o)      loginutils/lib.a(login.o) (run_shell)
libbb/lib.a(safe_gethostname.o)
                              networking/lib.a(hostname.o) (safe_gethostname)
libbb/lib.a(safe_strncpy.o)   loginutils/lib.a(login.o) (safe_strncpy)
libbb/lib.a(setup_environment.o)
                              loginutils/lib.a(login.o) (setup_environment)
libbb/lib.a(signals.o)        shell/lib.a(ash.o) (sigaction_set)
libbb/lib.a(simplify_path.o)  util-linux/lib.a(mount.o) (bb_simplify_path)
libbb/lib.a(str_tolower.o)    networking/lib.a(wget.o) (str_tolower)
libbb/lib.a(time.o)           networking/lib.a(arping.o) (monotonic_us)
libbb/lib.a(u_signal_names.o)
                              procps/lib.a(kill.o) (get_signum)
libbb/lib.a(update_passwd.o)  loginutils/lib.a(passwd.o) (update_passwd)
libbb/lib.a(uuencode.o)       networking/lib.a(sendmail.o) (bb_uuenc_tbl_base64)
libbb/lib.a(vfork_daemon_rexec.o)
                              debianutils/lib.a(run_parts.o) (spawn)
libbb/lib.a(wfopen_input.o)   networking/lib.a(netstat.o) (fopen_or_warn_stdin)
libbb/lib.a(xatonum.o)        coreutils/lib.a(dd.o) (xatoull_sfx)
libbb/lib.a(xconnect.o)       networking/lib.a(tftp.o) (setsockopt_reuseaddr)
libbb/lib.a(xgetcwd.o)        coreutils/lib.a(pwd.o) (xrealloc_getcwd_or_warn)
libbb/lib.a(xgethostbyname.o)
                              networking/lib.a(hostname.o) (xgethostbyname)
libbb/lib.a(xrealloc_vector.o)
                              modutils/lib.a(insmod.o) (xrealloc_vector_helper)
libbb/lib.a(xregcomp.o)       editors/lib.a(awk.o) (xregcomp)
libbb/lib.a(bb_qsort.o)       libbb/lib.a(lineedit.o) (qsort_string_vector)
libpwdgrp/lib.a(uidgid_get.o)
                              coreutils/lib.a(chown.o) (parse_chown_usergroup_or_die)
/home/devicenull/ipmi/SDK/ToolChain/Host/HERMON/gcc-3.4.4-glibc-2.3.5-armv4/arm-linux/bin/../lib/gcc/arm-linux/3.4.4/libgcc.a(_udivsi3.oS)
                              libbb/lib.a(xfuncs.o) (__udivsi3)
/home/devicenull/ipmi/SDK/ToolChain/Host/HERMON/gcc-3.4.4-glibc-2.3.5-armv4/arm-linux/bin/../lib/gcc/arm-linux/3.4.4/libgcc.a(_divsi3.oS)
                              networking/lib.a(route.o) (__divsi3)
/home/devicenull/ipmi/SDK/ToolChain/Host/HERMON/gcc-3.4.4-glibc-2.3.5-armv4/arm-linux/bin/../lib/gcc/arm-linux/3.4.4/libgcc.a(_umodsi3.oS)
                              libbb/lib.a(xfuncs.o) (__umodsi3)
/home/devicenull/ipmi/SDK/ToolChain/Host/HERMON/gcc-3.4.4-glibc-2.3.5-armv4/arm-linux/bin/../lib/gcc/arm-linux/3.4.4/libgcc.a(_modsi3.oS)
                              networking/lib.a(route.o) (__modsi3)
/home/devicenull/ipmi/SDK/ToolChain/Host/HERMON/gcc-3.4.4-glibc-2.3.5-armv4/arm-linux/bin/../lib/gcc/arm-linux/3.4.4/libgcc.a(_dvmd_lnx.oS)
                              /home/devicenull/ipmi/SDK/ToolChain/Host/HERMON/gcc-3.4.4-glibc-2.3.5-armv4/arm-linux/bin/../lib/gcc/arm-linux/3.4.4/libgcc.a(_udivsi3.oS) (__div0)
/home/devicenull/ipmi/SDK/ToolChain/Host/HERMON/gcc-3.4.4-glibc-2.3.5-armv4/arm-linux/bin/../lib/gcc/arm-linux/3.4.4/libgcc.a(_addsubdf3.oS)
                              coreutils/lib.a(sleep.o) (__floatsidf)
/home/devicenull/ipmi/SDK/ToolChain/Host/HERMON/gcc-3.4.4-glibc-2.3.5-armv4/arm-linux/bin/../lib/gcc/arm-linux/3.4.4/libgcc.a(_muldivdf3.oS)
                              editors/lib.a(awk.o) (__divdf3)
/home/devicenull/ipmi/SDK/ToolChain/Host/HERMON/gcc-3.4.4-glibc-2.3.5-armv4/arm-linux/bin/../lib/gcc/arm-linux/3.4.4/libgcc.a(_cmpdf2.oS)
                              editors/lib.a(awk.o) (__eqdf2)
/home/devicenull/ipmi/SDK/ToolChain/Host/HERMON/gcc-3.4.4-glibc-2.3.5-armv4/arm-linux/bin/../lib/gcc/arm-linux/3.4.4/libgcc.a(_fixdfsi.oS)
                              coreutils/lib.a(sleep.o) (__fixdfsi)
/home/devicenull/ipmi/SDK/ToolChain/Host/HERMON/gcc-3.4.4-glibc-2.3.5-armv4/arm-linux/bin/../lib/gcc/arm-linux/3.4.4/libgcc.a(_fixunsdfsi.oS)
                              editors/lib.a(awk.o) (__fixunsdfsi)
/home/devicenull/ipmi/SDK/ToolChain/Host/HERMON/gcc-3.4.4-glibc-2.3.5-armv4/arm-linux/bin/../lib/gcc/arm-linux/3.4.4/libgcc.a(_lshrdi3.oS)
                              shell/lib.a(ash.o) (__lshrdi3)
/home/devicenull/ipmi/SDK/ToolChain/Host/HERMON/gcc-3.4.4-glibc-2.3.5-armv4/arm-linux/bin/../lib/gcc/arm-linux/3.4.4/libgcc.a(_ashldi3.oS)
                              shell/lib.a(ash.o) (__ashldi3)
/home/devicenull/ipmi/SDK/ToolChain/Host/HERMON/gcc-3.4.4-glibc-2.3.5-armv4/arm-linux/bin/../lib/gcc/arm-linux/3.4.4/libgcc.a(_ashrdi3.oS)
                              shell/lib.a(ash.o) (__ashrdi3)
/home/devicenull/ipmi/SDK/ToolChain/Host/HERMON/gcc-3.4.4-glibc-2.3.5-armv4/arm-linux/bin/../lib/gcc/arm-linux/3.4.4/libgcc.a(_cmpdi2.oS)
                              shell/lib.a(ash.o) (__cmpdi2)
/home/devicenull/ipmi/SDK/ToolChain/Host/HERMON/gcc-3.4.4-glibc-2.3.5-armv4/arm-linux/bin/../lib/gcc/arm-linux/3.4.4/libgcc.a(_divdi3.oS)
                              shell/lib.a(ash.o) (__divdi3)
/home/devicenull/ipmi/SDK/ToolChain/Host/HERMON/gcc-3.4.4-glibc-2.3.5-armv4/arm-linux/bin/../lib/gcc/arm-linux/3.4.4/libgcc.a(_moddi3.oS)
                              shell/lib.a(ash.o) (__moddi3)
/home/devicenull/ipmi/SDK/ToolChain/Host/HERMON/gcc-3.4.4-glibc-2.3.5-armv4/arm-linux/bin/../lib/gcc/arm-linux/3.4.4/libgcc.a(_udivdi3.oS)
                              networking/lib.a(ping.o) (__udivdi3)
/home/devicenull/ipmi/SDK/ToolChain/Host/HERMON/gcc-3.4.4-glibc-2.3.5-armv4/arm-linux/bin/../lib/gcc/arm-linux/3.4.4/libgcc.a(_umoddi3.oS)
                              libbb/lib.a(inode_hash.o) (__umoddi3)
/home/devicenull/ipmi/SDK/ToolChain/Host/HERMON/gcc-3.4.4-glibc-2.3.5-armv4/arm-linux/bin/../lib/gcc/arm-linux/3.4.4/libgcc.a(_clz.oS)
                              /home/devicenull/ipmi/SDK/ToolChain/Host/HERMON/gcc-3.4.4-glibc-2.3.5-armv4/arm-linux/bin/../lib/gcc/arm-linux/3.4.4/libgcc.a(_divdi3.oS) (__clz_tab)
/home/devicenull/ipmi/SDK/ToolChain/Host/HERMON/gcc-3.4.4-glibc-2.3.5-armv4/arm-linux/bin/../lib/gcc/arm-linux/3.4.4/../../../../arm-linux/lib/libc_nonshared.a(elf-init.oST)
                              /home/devicenull/ipmi/SDK/ToolChain/Host/HERMON/gcc-3.4.4-glibc-2.3.5-armv4/arm-linux/bin/../lib/gcc/arm-linux/3.4.4/../../../../arm-linux/lib/crt1.o (__libc_csu_init)
/home/devicenull/ipmi/SDK/ToolChain/Host/HERMON/gcc-3.4.4-glibc-2.3.5-armv4/arm-linux/bin/../lib/gcc/arm-linux/3.4.4/../../../../arm-linux/lib/libc_nonshared.a(atexit.oST)
                              editors/lib.a(sed.o) (atexit)
/home/devicenull/ipmi/SDK/ToolChain/Host/HERMON/gcc-3.4.4-glibc-2.3.5-armv4/arm-linux/bin/../lib/gcc/arm-linux/3.4.4/../../../../arm-linux/lib/libc_nonshared.a(stat64.oST)
                              coreutils/lib.a(cp.o) (stat64)
/home/devicenull/ipmi/SDK/ToolChain/Host/HERMON/gcc-3.4.4-glibc-2.3.5-armv4/arm-linux/bin/../lib/gcc/arm-linux/3.4.4/../../../../arm-linux/lib/libc_nonshared.a(lstat64.oST)
                              coreutils/lib.a(cp.o) (lstat64)

Memory Configuration

Name             Origin             Length             Attributes
*default*        0x00000000         0xffffffff

Linker script and memory map

LOAD /home/devicenull/ipmi/SDK/ToolChain/Host/HERMON/gcc-3.4.4-glibc-2.3.5-armv4/arm-linux/bin/../lib/gcc/arm-linux/3.4.4/../../../../arm-linux/lib/crt1.o
LOAD /home/devicenull/ipmi/SDK/ToolChain/Host/HERMON/gcc-3.4.4-glibc-2.3.5-armv4/arm-linux/bin/../lib/gcc/arm-linux/3.4.4/../../../../arm-linux/lib/crti.o
LOAD /home/devicenull/ipmi/SDK/ToolChain/Host/HERMON/gcc-3.4.4-glibc-2.3.5-armv4/arm-linux/bin/../lib/gcc/arm-linux/3.4.4/crtbegin.o
START GROUP
LOAD applets/built-in.o
LOAD archival/lib.a
LOAD archival/libunarchive/lib.a
LOAD console-tools/lib.a
LOAD coreutils/lib.a
LOAD coreutils/libcoreutils/lib.a
LOAD debianutils/lib.a
LOAD e2fsprogs/lib.a
LOAD editors/lib.a
LOAD findutils/lib.a
LOAD init/lib.a
LOAD libbb/lib.a
LOAD libpwdgrp/lib.a
LOAD loginutils/lib.a
LOAD miscutils/lib.a
LOAD modutils/lib.a
LOAD networking/lib.a
LOAD networking/libiproute/lib.a
LOAD networking/udhcp/lib.a
LOAD printutils/lib.a
LOAD procps/lib.a
LOAD runit/lib.a
LOAD selinux/lib.a
LOAD shell/lib.a
LOAD sysklogd/lib.a
LOAD util-linux/lib.a
LOAD util-linux/volume_id/lib.a
LOAD archival/built-in.o
LOAD archival/libunarchive/built-in.o
LOAD console-tools/built-in.o
LOAD coreutils/built-in.o
LOAD coreutils/libcoreutils/built-in.o
LOAD debianutils/built-in.o
LOAD e2fsprogs/built-in.o
LOAD editors/built-in.o
LOAD findutils/built-in.o
LOAD init/built-in.o
LOAD libbb/built-in.o
LOAD libpwdgrp/built-in.o
LOAD loginutils/built-in.o
LOAD miscutils/built-in.o
LOAD modutils/built-in.o
LOAD networking/built-in.o
LOAD networking/libiproute/built-in.o
LOAD networking/udhcp/built-in.o
LOAD printutils/built-in.o
LOAD procps/built-in.o
LOAD runit/built-in.o
LOAD selinux/built-in.o
LOAD shell/built-in.o
LOAD sysklogd/built-in.o
LOAD util-linux/built-in.o
LOAD util-linux/volume_id/built-in.o
END GROUP
START GROUP
LOAD /home/devicenull/ipmi/SDK/ToolChain/Host/HERMON/gcc-3.4.4-glibc-2.3.5-armv4/arm-linux/bin/../lib/gcc/arm-linux/3.4.4/../../../../arm-linux/lib/libcrypt.so
END GROUP
LOAD /home/devicenull/ipmi/SDK/ToolChain/Host/HERMON/gcc-3.4.4-glibc-2.3.5-armv4/arm-linux/bin/../lib/gcc/arm-linux/3.4.4/libgcc.a
LOAD /home/devicenull/ipmi/SDK/ToolChain/Host/HERMON/gcc-3.4.4-glibc-2.3.5-armv4/arm-linux/bin/../lib/gcc/arm-linux/3.4.4/libgcc_eh.a
LOAD /home/devicenull/ipmi/SDK/ToolChain/Host/HERMON/gcc-3.4.4-glibc-2.3.5-armv4/arm-linux/bin/../lib/gcc/arm-linux/3.4.4/../../../../arm-linux/lib/libc.so
START GROUP
LOAD /home/devicenull/ipmi/SDK/ToolChain/Host/HERMON/gcc-3.4.4-glibc-2.3.5-armv4/arm-linux/bin/../lib/gcc/arm-linux/3.4.4/../../../../arm-linux/lib/libc.so.6
LOAD /home/devicenull/ipmi/SDK/ToolChain/Host/HERMON/gcc-3.4.4-glibc-2.3.5-armv4/arm-linux/bin/../lib/gcc/arm-linux/3.4.4/../../../../arm-linux/lib/libc_nonshared.a
END GROUP
LOAD /home/devicenull/ipmi/SDK/ToolChain/Host/HERMON/gcc-3.4.4-glibc-2.3.5-armv4/arm-linux/bin/../lib/gcc/arm-linux/3.4.4/libgcc.a
LOAD /home/devicenull/ipmi/SDK/ToolChain/Host/HERMON/gcc-3.4.4-glibc-2.3.5-armv4/arm-linux/bin/../lib/gcc/arm-linux/3.4.4/libgcc_eh.a
LOAD /home/devicenull/ipmi/SDK/ToolChain/Host/HERMON/gcc-3.4.4-glibc-2.3.5-armv4/arm-linux/bin/../lib/gcc/arm-linux/3.4.4/crtend.o
LOAD /home/devicenull/ipmi/SDK/ToolChain/Host/HERMON/gcc-3.4.4-glibc-2.3.5-armv4/arm-linux/bin/../lib/gcc/arm-linux/3.4.4/../../../../arm-linux/lib/crtn.o
                0x00008000                PROVIDE (__executable_start, 0x8000)
                0x000080d4                . = (0x8000 + SIZEOF_HEADERS)

.interp         0x000080d4       0x13
 *(SORT(.interp))
 .interp        0x000080d4       0x13 /home/devicenull/ipmi/SDK/ToolChain/Host/HERMON/gcc-3.4.4-glibc-2.3.5-armv4/arm-linux/bin/../lib/gcc/arm-linux/3.4.4/../../../../arm-linux/lib/crti.o

.hash           0x000080e8      0xa38
 *(SORT(.hash))
 .hash          0x000080e8      0xa38 /home/devicenull/ipmi/SDK/ToolChain/Host/HERMON/gcc-3.4.4-glibc-2.3.5-armv4/arm-linux/bin/../lib/gcc/arm-linux/3.4.4/../../../../arm-linux/lib/crti.o

.dynsym         0x00008b20     0x1850
 *(SORT(.dynsym))
 .dynsym        0x00008b20     0x1850 /home/devicenull/ipmi/SDK/ToolChain/Host/HERMON/gcc-3.4.4-glibc-2.3.5-armv4/arm-linux/bin/../lib/gcc/arm-linux/3.4.4/../../../../arm-linux/lib/crti.o

.dynstr         0x0000a370      0xf87
 *(SORT(.dynstr))
 .dynstr        0x0000a370      0xf87 /home/devicenull/ipmi/SDK/ToolChain/Host/HERMON/gcc-3.4.4-glibc-2.3.5-armv4/arm-linux/bin/../lib/gcc/arm-linux/3.4.4/../../../../arm-linux/lib/crti.o

.gnu.version    0x0000b2f8      0x30a
 *(SORT(.gnu.version))
 .gnu.version   0x0000b2f8      0x30a /home/devicenull/ipmi/SDK/ToolChain/Host/HERMON/gcc-3.4.4-glibc-2.3.5-armv4/arm-linux/bin/../lib/gcc/arm-linux/3.4.4/../../../../arm-linux/lib/crti.o

.gnu.version_d
 *(SORT(.gnu.version_d))

.gnu.version_r  0x0000b604       0xd0
 *(SORT(.gnu.version_r))
 .gnu.version_r
                0x0000b604       0xd0 /home/devicenull/ipmi/SDK/ToolChain/Host/HERMON/gcc-3.4.4-glibc-2.3.5-armv4/arm-linux/bin/../lib/gcc/arm-linux/3.4.4/../../../../arm-linux/lib/crti.o

.rel.dyn        0x0000b6d4      0x368
 *(SORT(.rel.init))
 *(SORT(.rel.text) .rel.text.* .rel.gnu.linkonce.t.*)
 *(SORT(.rel.fini))
 *(SORT(.rel.rodata) .rel.rodata.* .rel.gnu.linkonce.r.*)
 *(SORT(.rel.data.rel.ro*))
 *(SORT(.rel.data) .rel.data.* .rel.gnu.linkonce.d.*)
 *(SORT(.rel.tdata) .rel.tdata.* .rel.gnu.linkonce.td.*)
 *(SORT(.rel.tbss) .rel.tbss.* .rel.gnu.linkonce.tb.*)
 *(SORT(.rel.ctors))
 *(SORT(.rel.dtors))
 *(SORT(.rel.got))
 .rel.got       0x0000b6d4      0x338 /home/devicenull/ipmi/SDK/ToolChain/Host/HERMON/gcc-3.4.4-glibc-2.3.5-armv4/arm-linux/bin/../lib/gcc/arm-linux/3.4.4/../../../../arm-linux/lib/crti.o
 *(SORT(.rel.bss) .rel.bss.* .rel.gnu.linkonce.b.*)
 .rel.bss       0x0000ba0c       0x30 /home/devicenull/ipmi/SDK/ToolChain/Host/HERMON/gcc-3.4.4-glibc-2.3.5-armv4/arm-linux/bin/../lib/gcc/arm-linux/3.4.4/../../../../arm-linux/lib/crti.o

.rela.dyn
 *(SORT(.rela.init))
 *(SORT(.rela.text) .rela.text.* .rela.gnu.linkonce.t.*)
 *(SORT(.rela.fini))
 *(SORT(.rela.rodata) .rela.rodata.* .rela.gnu.linkonce.r.*)
 *(SORT(.rela.data) .rela.data.* .rela.gnu.linkonce.d.*)
 *(SORT(.rela.tdata) .rela.tdata.* .rela.gnu.linkonce.td.*)
 *(SORT(.rela.tbss) .rela.tbss.* .rela.gnu.linkonce.tb.*)
 *(SORT(.rela.ctors))
 *(SORT(.rela.dtors))
 *(SORT(.rela.got))
 *(SORT(.rela.bss) .rela.bss.* .rela.gnu.linkonce.b.*)

.rel.plt        0x0000ba3c      0x8f8
 *(SORT(.rel.plt))
 .rel.plt       0x0000ba3c      0x8f8 /home/devicenull/ipmi/SDK/ToolChain/Host/HERMON/gcc-3.4.4-glibc-2.3.5-armv4/arm-linux/bin/../lib/gcc/arm-linux/3.4.4/../../../../arm-linux/lib/crti.o

.rela.plt
 *(SORT(.rela.plt))

.init           0x0000c334       0x14
 *(SORT(.init))
 .init          0x0000c334        0x8 /home/devicenull/ipmi/SDK/ToolChain/Host/HERMON/gcc-3.4.4-glibc-2.3.5-armv4/arm-linux/bin/../lib/gcc/arm-linux/3.4.4/../../../../arm-linux/lib/crti.o
                0x0000c334                _init
 .init          0x0000c33c        0x4 /home/devicenull/ipmi/SDK/ToolChain/Host/HERMON/gcc-3.4.4-glibc-2.3.5-armv4/arm-linux/bin/../lib/gcc/arm-linux/3.4.4/crtbegin.o
 .init          0x0000c340        0x4 /home/devicenull/ipmi/SDK/ToolChain/Host/HERMON/gcc-3.4.4-glibc-2.3.5-armv4/arm-linux/bin/../lib/gcc/arm-linux/3.4.4/crtend.o
 .init          0x0000c344        0x4 /home/devicenull/ipmi/SDK/ToolChain/Host/HERMON/gcc-3.4.4-glibc-2.3.5-armv4/arm-linux/bin/../lib/gcc/arm-linux/3.4.4/../../../../arm-linux/lib/crtn.o

.plt            0x0000c348      0xd88
 *(SORT(.plt))
 .plt           0x0000c348      0xd88 /home/devicenull/ipmi/SDK/ToolChain/Host/HERMON/gcc-3.4.4-glibc-2.3.5-armv4/arm-linux/bin/../lib/gcc/arm-linux/3.4.4/../../../../arm-linux/lib/crti.o
                0x0000c35c                freeaddrinfo@@GLIBC_2.0
                0x0000c368                getchar@@GLIBC_2.0
                0x0000c374                readlink@@GLIBC_2.0
                0x0000c380                sigfillset@@GLIBC_2.0
                0x0000c38c                regexec@@GLIBC_2.3.4
                0x0000c398                usleep@@GLIBC_2.0
                0x0000c3a4                mkdir@@GLIBC_2.0
                0x0000c3b0                getgrnam@@GLIBC_2.0
                0x0000c3bc                ttyname@@GLIBC_2.0
                0x0000c3c8                fgetc@@GLIBC_2.0
                0x0000c3d4                clnttcp_create@@GLIBC_2.0
                0x0000c3e0                rename@@GLIBC_2.0
                0x0000c3ec                ferror@@GLIBC_2.0
                0x0000c3f8                sigaction@@GLIBC_2.0
                0x0000c404                readdir64@@GLIBC_2.2
                0x0000c410                dprintf@@GLIBC_2.0
                0x0000c41c                execl@@GLIBC_2.0
                0x0000c428                strchr@@GLIBC_2.0
                0x0000c434                getmntent@@GLIBC_2.0
                0x0000c440                fdopen@@GLIBC_2.1
                0x0000c44c                feof@@GLIBC_2.0
                0x0000c458                xdr_opaque@@GLIBC_2.0
                0x0000c464                if_nametoindex@@GLIBC_2.1
                0x0000c470                mempcpy@@GLIBC_2.1
                0x0000c47c                ungetc@@GLIBC_2.0
                0x0000c488                grantpt@@GLIBC_2.1
                0x0000c494                getpid@@GLIBC_2.0
                0x0000c4a0                strdup@@GLIBC_2.0
                0x0000c4ac                __ctype_tolower_loc@@GLIBC_2.3
                0x0000c4b8                nanosleep@@GLIBC_2.0
                0x0000c4c4                init_module@@GLIBC_2.0
                0x0000c4d0                getaddrinfo@@GLIBC_2.0
                0x0000c4dc                getpgrp@@GLIBC_2.0
                0x0000c4e8                setrlimit64@@GLIBC_2.1
                0x0000c4f4                write@@GLIBC_2.0
                0x0000c500                poll@@GLIBC_2.0
                0x0000c50c                localtime@@GLIBC_2.0
                0x0000c518                recvfrom@@GLIBC_2.0
                0x0000c524                fileno@@GLIBC_2.0
                0x0000c530                getservbyport@@GLIBC_2.0
                0x0000c53c                strcmp@@GLIBC_2.0
                0x0000c548                isspace@@GLIBC_2.0
                0x0000c554                close@@GLIBC_2.0
                0x0000c560                getspnam_r@@GLIBC_2.1.2
                0x0000c56c                inet_pton@@GLIBC_2.0
                0x0000c578                vfork@@GLIBC_2.0
                0x0000c584                strsignal@@GLIBC_2.0
                0x0000c590                perror@@GLIBC_2.0
                0x0000c59c                fprintf@@GLIBC_2.0
                0x0000c5a8                fork@@GLIBC_2.0
                0x0000c5b4                getenv@@GLIBC_2.0
                0x0000c5c0                umask@@GLIBC_2.0
                0x0000c5cc                signal@@GLIBC_2.0
                0x0000c5d8                fflush@@GLIBC_2.0
                0x0000c5e4                regfree@@GLIBC_2.0
                0x0000c5f0                pclose@@GLIBC_2.1
                0x0000c5fc                getservbyname@@GLIBC_2.0
                0x0000c608                isgraph@@GLIBC_2.0
                0x0000c614                unlink@@GLIBC_2.0
                0x0000c620                setpriority@@GLIBC_2.0
                0x0000c62c                delete_module@@GLIBC_2.0
                0x0000c638                unsetenv@@GLIBC_2.0
                0x0000c644                select@@GLIBC_2.0
                0x0000c650                sethostname@@GLIBC_2.0
                0x0000c65c                vsnprintf@@GLIBC_2.0
                0x0000c668                setenv@@GLIBC_2.0
                0x0000c674                getnameinfo@@GLIBC_2.1
                0x0000c680                strerror@@GLIBC_2.0
                0x0000c68c                dirname@@GLIBC_2.0
                0x0000c698                tcsetattr@@GLIBC_2.0
                0x0000c6a4                getgroups@@GLIBC_2.0
                0x0000c6b0                isalnum@@GLIBC_2.0
                0x0000c6bc                putchar@@GLIBC_2.0
                0x0000c6c8                setlocale@@GLIBC_2.0
                0x0000c6d4                __cxa_atexit@@GLIBC_2.1.3
                0x0000c6e0                getpwuid@@GLIBC_2.0
                0x0000c6ec                execve@@GLIBC_2.0
                0x0000c6f8                initgroups@@GLIBC_2.0
                0x0000c704                putenv@@GLIBC_2.0
                0x0000c710                getitimer@@GLIBC_2.0
                0x0000c71c                __cmsg_nxthdr@@GLIBC_2.0
                0x0000c728                __errno_location@@GLIBC_2.0
                0x0000c734                reboot@@GLIBC_2.0
                0x0000c740                setgid@@GLIBC_2.0
                0x0000c74c                getgrgid@@GLIBC_2.0
                0x0000c758                memchr@@GLIBC_2.0
                0x0000c764                xdr_u_int@@GLIBC_2.0
                0x0000c770                accept@@GLIBC_2.0
                0x0000c77c                gethostbyaddr@@GLIBC_2.0
                0x0000c788                tcgetpgrp@@GLIBC_2.0
                0x0000c794                chmod@@GLIBC_2.0
                0x0000c7a0                access@@GLIBC_2.0
                0x0000c7ac                inet_ntoa@@GLIBC_2.0
                0x0000c7b8                puts@@GLIBC_2.0
                0x0000c7c4                popen@@GLIBC_2.1
                0x0000c7d0                killpg@@GLIBC_2.0
                0x0000c7dc                listen@@GLIBC_2.0
                0x0000c7e8                difftime@@GLIBC_2.0
                0x0000c7f4                isxdigit@@GLIBC_2.0
                0x0000c800                malloc@@GLIBC_2.0
                0x0000c80c                setsid@@GLIBC_2.0
                0x0000c818                fscanf@@GLIBC_2.0
                0x0000c824                strftime@@GLIBC_2.0
                0x0000c830                getppid@@GLIBC_2.0
                0x0000c83c                hstrerror@@GLIBC_2.0
                0x0000c848                syscall@@GLIBC_2.0
                0x0000c854                pipe@@GLIBC_2.0
                0x0000c860                fread@@GLIBC_2.0
                0x0000c86c                setresuid@@GLIBC_2.0
                0x0000c878                memmove@@GLIBC_2.0
                0x0000c884                sendto@@GLIBC_2.0
                0x0000c890                clearerr@@GLIBC_2.0
                0x0000c89c                regerror@@GLIBC_2.0
                0x0000c8a8                getrlimit64@@GLIBC_2.2
                0x0000c8b4                link@@GLIBC_2.0
                0x0000c8c0                strpbrk@@GLIBC_2.0
                0x0000c8cc                strtoull@@GLIBC_2.0
                0x0000c8d8                syslog@@GLIBC_2.0
                0x0000c8e4                __h_errno_location@@GLIBC_2.0
                0x0000c8f0                xdr_bytes@@GLIBC_2.0
                0x0000c8fc                vasprintf@@GLIBC_2.0
                0x0000c908                abort@@GLIBC_2.0
                0x0000c914                strtoll@@GLIBC_2.0
                0x0000c920                setsockopt@@GLIBC_2.0
                0x0000c92c                getpagesize@@GLIBC_2.0
                0x0000c938                sysconf@@GLIBC_2.0
                0x0000c944                execv@@GLIBC_2.0
                0x0000c950                inet_aton@@GLIBC_2.0
                0x0000c95c                vfprintf@@GLIBC_2.0
                0x0000c968                fchmod@@GLIBC_2.0
                0x0000c974                umount@@GLIBC_2.0
                0x0000c980                fseek@@GLIBC_2.0
                0x0000c98c                waitpid@@GLIBC_2.0
                0x0000c998                fnmatch@@GLIBC_2.2.3
                0x0000c9a4                strsep@@GLIBC_2.0
                0x0000c9b0                setmntent@@GLIBC_2.0
                0x0000c9bc                time@@GLIBC_2.0
                0x0000c9c8                clnt_sperror@@GLIBC_2.0
                0x0000c9d4                execle@@GLIBC_2.0
                0x0000c9e0                getopt@@GLIBC_2.0
                0x0000c9ec                fgets@@GLIBC_2.0
                0x0000c9f8                execlp@@GLIBC_2.0
                0x0000ca04                clnt_spcreateerror@@GLIBC_2.0
                0x0000ca10                recvmsg@@GLIBC_2.0
                0x0000ca1c                chdir@@GLIBC_2.0
                0x0000ca28                fputs@@GLIBC_2.0
                0x0000ca34                strstr@@GLIBC_2.0
                0x0000ca40                strlen@@GLIBC_2.0
                0x0000ca4c                longjmp@@GLIBC_2.0
                0x0000ca58                sleep@@GLIBC_2.0
                0x0000ca64                mkdtemp@@GLIBC_2.2
                0x0000ca70                ftruncate64@@GLIBC_2.1
                0x0000ca7c                sigaddset@@GLIBC_2.0
                0x0000ca88                strcspn@@GLIBC_2.0
                0x0000ca94                uname@@GLIBC_2.0
                0x0000caa0                qsort@@GLIBC_2.0
                0x0000caac                __xpg_basename@@GLIBC_2.0
                0x0000cab8                lseek64@@GLIBC_2.1
                0x0000cac4                execvp@@GLIBC_2.0
                0x0000cad0                statfs64@@GLIBC_2.1
                0x0000cadc                setlinebuf@@GLIBC_2.0
                0x0000cae8                sigprocmask@@GLIBC_2.0
                0x0000caf4                bindresvport@@GLIBC_2.0
                0x0000cb00                strncmp@@GLIBC_2.0
                0x0000cb0c                strtol@@GLIBC_2.0
                0x0000cb18                pause@@GLIBC_2.0
                0x0000cb24                clntudp_create@@GLIBC_2.0
                0x0000cb30                openlog@@GLIBC_2.0
                0x0000cb3c                create_module@@GLIBC_2.0
                0x0000cb48                fputc@@GLIBC_2.0
                0x0000cb54                inet_addr@@GLIBC_2.0
                0x0000cb60                getmntent_r@@GLIBC_2.0
                0x0000cb6c                __xstat64@@GLIBC_2.2
                0x0000cb78                memcmp@@GLIBC_2.0
                0x0000cb84                xdr_enum@@GLIBC_2.0
                0x0000cb90                fsync@@GLIBC_2.0
                0x0000cb9c                setpgid@@GLIBC_2.0
                0x0000cba8                strcasestr@@GLIBC_2.1
                0x0000cbb4                __libc_start_main@@GLIBC_2.0
                0x0000cbc0                raise@@GLIBC_2.0
                0x0000cbcc                islower@@GLIBC_2.0
                0x0000cbd8                authunix_create_default@@GLIBC_2.0
                0x0000cbe4                dup2@@GLIBC_2.0
                0x0000cbf0                realloc@@GLIBC_2.0
                0x0000cbfc                strcat@@GLIBC_2.0
                0x0000cc08                pivot_root@@GLIBC_2.2.1
                0x0000cc14                printf@@GLIBC_2.0
                0x0000cc20                bind@@GLIBC_2.0
                0x0000cc2c                getuid@@GLIBC_2.0
                0x0000cc38                chown@@GLIBC_2.0
                0x0000cc44                fcntl@@GLIBC_2.0
                0x0000cc50                memcpy@@GLIBC_2.0
                0x0000cc5c                ptsname_r@@GLIBC_2.1
                0x0000cc68                open64@@GLIBC_2.1
                0x0000cc74                fclose@@GLIBC_2.1
                0x0000cc80                __ctype_toupper_loc@@GLIBC_2.3
                0x0000cc8c                getsockname@@GLIBC_2.0
                0x0000cc98                strrchr@@GLIBC_2.0
                0x0000cca4                endmntent@@GLIBC_2.0
                0x0000ccb0                times@@GLIBC_2.0
                0x0000ccbc                ctime@@GLIBC_2.0
                0x0000ccc8                isupper@@GLIBC_2.0
                0x0000ccd4                rmdir@@GLIBC_2.0
                0x0000cce0                getopt_long@@GLIBC_2.0
                0x0000ccec                getgid@@GLIBC_2.0
                0x0000ccf8                fopen64@@GLIBC_2.1
                0x0000cd04                closedir@@GLIBC_2.0
                0x0000cd10                symlink@@GLIBC_2.0
                0x0000cd1c                gettimeofday@@GLIBC_2.0
                0x0000cd28                srand@@GLIBC_2.0
                0x0000cd34                strcoll@@GLIBC_2.0
                0x0000cd40                opendir@@GLIBC_2.0
                0x0000cd4c                snprintf@@GLIBC_2.0
                0x0000cd58                __lxstat64@@GLIBC_2.2
                0x0000cd64                strchrnul@@GLIBC_2.1.1
                0x0000cd70                gethostbyname@@GLIBC_2.0
                0x0000cd7c                sigemptyset@@GLIBC_2.0
                0x0000cd88                regcomp@@GLIBC_2.0
                0x0000cd94                strcasecmp@@GLIBC_2.0
                0x0000cda0                mkstemp64@@GLIBC_2.2
                0x0000cdac                inet_ntop@@GLIBC_2.0
                0x0000cdb8                tcflush@@GLIBC_2.0
                0x0000cdc4                strspn@@GLIBC_2.0
                0x0000cdd0                getpwnam@@GLIBC_2.0
                0x0000cddc                exit@@GLIBC_2.0
                0x0000cde8                getpriority@@GLIBC_2.0
                0x0000cdf4                isalpha@@GLIBC_2.0
                0x0000ce00                sendmsg@@GLIBC_2.0
                0x0000ce0c                atoi@@GLIBC_2.0
                0x0000ce18                getegid@@GLIBC_2.0
                0x0000ce24                sscanf@@GLIBC_2.0
                0x0000ce30                tcsetpgrp@@GLIBC_2.0
                0x0000ce3c                _IO_putc@@GLIBC_2.0
                0x0000ce48                free@@GLIBC_2.0
                0x0000ce54                ioctl@@GLIBC_2.0
                0x0000ce60                strtoul@@GLIBC_2.0
                0x0000ce6c                utime@@GLIBC_2.0
                0x0000ce78                getcwd@@GLIBC_2.0
                0x0000ce84                clearenv@@GLIBC_2.0
                0x0000ce90                xdr_array@@GLIBC_2.0
                0x0000ce9c                isatty@@GLIBC_2.0
                0x0000cea8                memset@@GLIBC_2.0
                0x0000ceb4                _exit@@GLIBC_2.0
                0x0000cec0                strncasecmp@@GLIBC_2.0
                0x0000cecc                connect@@GLIBC_2.0
                0x0000ced8                pmap_getmaps@@GLIBC_2.0
                0x0000cee4                strtod@@GLIBC_2.0
                0x0000cef0                getsid@@GLIBC_2.0
                0x0000cefc                cfmakeraw@@GLIBC_2.0
                0x0000cf08                mount@@GLIBC_2.0
                0x0000cf14                __xmknod@@GLIBC_2.0
                0x0000cf20                strncpy@@GLIBC_2.0
                0x0000cf2c                dup@@GLIBC_2.0
                0x0000cf38                _setjmp@@GLIBC_2.0
                0x0000cf44                crypt@@GLIBC_2.0
                0x0000cf50                query_module@@GLIBC_2.0
                0x0000cf5c                vprintf@@GLIBC_2.0
                0x0000cf68                strtok@@GLIBC_2.0
                0x0000cf74                endgrent@@GLIBC_2.0
                0x0000cf80                kill@@GLIBC_2.0
                0x0000cf8c                vsyslog@@GLIBC_2.0
                0x0000cf98                ether_ntoa@@GLIBC_2.0
                0x0000cfa4                pmap_getport@@GLIBC_2.0
                0x0000cfb0                sprintf@@GLIBC_2.0
                0x0000cfbc                fchown@@GLIBC_2.0
                0x0000cfc8                umount2@@GLIBC_2.1
                0x0000cfd4                fwrite@@GLIBC_2.0
                0x0000cfe0                realpath@@GLIBC_2.3
                0x0000cfec                socket@@GLIBC_2.0
                0x0000cff8                klogctl@@GLIBC_2.0
                0x0000d004                _IO_getc@@GLIBC_2.0
                0x0000d01c                rand@@GLIBC_2.0
                0x0000d028                setuid@@GLIBC_2.0
                0x0000d034                setresgid@@GLIBC_2.0
                0x0000d040                bsearch@@GLIBC_2.0
                0x0000d04c                unlockpt@@GLIBC_2.1
                0x0000d058                tcgetattr@@GLIBC_2.0
                0x0000d064                read@@GLIBC_2.0
                0x0000d070                xdr_string@@GLIBC_2.0
                0x0000d07c                alarm@@GLIBC_2.0
                0x0000d088                __fxstat64@@GLIBC_2.2
                0x0000d094                lchown@@GLIBC_2.0
                0x0000d0a0                geteuid@@GLIBC_2.0
                0x0000d0ac                wait@@GLIBC_2.0
                0x0000d0b8                sync@@GLIBC_2.0
                0x0000d0c4                strcpy@@GLIBC_2.0

.text           0x0000d0d0    0x4f664
 *(SORT(.text) .stub .text.* .gnu.linkonce.t.*)
 .text          0x0000d0d0       0x38 /home/devicenull/ipmi/SDK/ToolChain/Host/HERMON/gcc-3.4.4-glibc-2.3.5-armv4/arm-linux/bin/../lib/gcc/arm-linux/3.4.4/../../../../arm-linux/lib/crt1.o
                0x0000d0d0                _start
 .text          0x0000d108       0x30 /home/devicenull/ipmi/SDK/ToolChain/Host/HERMON/gcc-3.4.4-glibc-2.3.5-armv4/arm-linux/bin/../lib/gcc/arm-linux/3.4.4/../../../../arm-linux/lib/crti.o
 .text          0x0000d138       0x8c /home/devicenull/ipmi/SDK/ToolChain/Host/HERMON/gcc-3.4.4-glibc-2.3.5-armv4/arm-linux/bin/../lib/gcc/arm-linux/3.4.4/crtbegin.o
 .text.main     0x0000d1c4        0x8 applets/built-in.o
                0x0000d1c4                main
 .text.full_write2_str
                0x0000d1cc       0x20 libbb/lib.a(appletlib.o)
 .text.applet_name_compare
                0x0000d1ec       0x48 libbb/lib.a(appletlib.o)
 .text.find_applet_by_name
                0x0000d234       0x54 libbb/lib.a(appletlib.o)
                0x0000d234                find_applet_by_name
 .text.bb_show_usage
                0x0000d288      0x124 libbb/lib.a(appletlib.o)
                0x0000d288                bb_show_usage
 .text.lbb_prepare
                0x0000d3ac       0x8c libbb/lib.a(appletlib.o)
                0x0000d3ac                lbb_prepare
 .text.get_trimmed_slice
                0x0000d438       0x44 libbb/lib.a(appletlib.o)
 .text.run_applet_no_and_exit
                0x0000d47c      0x280 libbb/lib.a(appletlib.o)
                0x0000d47c                run_applet_no_and_exit
 .text.run_applet_and_exit
                0x0000d6fc      0x30c libbb/lib.a(appletlib.o)
                0x0000d6fc                run_applet_and_exit
 .text.lbb_main
                0x0000da08      0x478 libbb/lib.a(appletlib.o)
                0x0000da08                lbb_main
 .text.bb_basename
                0x0000de80       0x20 libbb/lib.a(bb_basename.o)
                0x0000de80                bb_basename
 .text.ret_ERANGE
                0x0000dea0       0x34 libbb/lib.a(bb_strtonum.o)
 .text.handle_errors
                0x0000ded4       0x70 libbb/lib.a(bb_strtonum.o)
 .text.bb_strtoull
                0x0000df44       0x74 libbb/lib.a(bb_strtonum.o)
                0x0000df44                bb_strtoull
 .text.bb_strtoul
                0x0000dfb8       0x78 libbb/lib.a(bb_strtonum.o)
                0x0000dfb8                bb_strtoul
 .text.bb_strtol
                0x0000e030       0x80 libbb/lib.a(bb_strtonum.o)
                0x0000e030                bb_strtol
 .text.concat_path_file
                0x0000e0b0       0x70 libbb/lib.a(concat_path_file.o)
                0x0000e0b0                concat_path_file
 .text.bb_error_msg_and_die
                0x0000e120       0x1c libbb/lib.a(error_msg_and_die.o)
                0x0000e120                bb_error_msg_and_die
 .text.full_write
                0x0000e13c       0x54 libbb/lib.a(full_write.o)
                0x0000e13c                full_write
 .text.bb_get_last_path_component_nostrip
                0x0000e190       0x3c libbb/lib.a(get_last_path_component.o)
                0x0000e190                bb_get_last_path_component_nostrip
 .text.bb_get_last_path_component_strip
                0x0000e1cc       0x50 libbb/lib.a(get_last_path_component.o)
                0x0000e1cc                bb_get_last_path_component_strip
 .text.last_char_is
                0x0000e21c       0x3c libbb/lib.a(last_char_is.o)
                0x0000e21c                last_char_is
 .text.bb_perror_msg
                0x0000e258       0x4c libbb/lib.a(perror_msg.o)
                0x0000e258                bb_perror_msg
 .text.bb_simple_perror_msg
                0x0000e2a4       0x28 libbb/lib.a(perror_msg.o)
                0x0000e2a4                bb_simple_perror_msg
 .text.bb_perror_msg_and_die
                0x0000e2cc       0x44 libbb/lib.a(perror_msg_and_die.o)
                0x0000e2cc                bb_perror_msg_and_die
 .text.bb_simple_perror_msg_and_die
                0x0000e310       0x20 libbb/lib.a(perror_msg_and_die.o)
                0x0000e310                bb_simple_perror_msg_and_die
 .text.safe_write
                0x0000e330       0x54 libbb/lib.a(safe_write.o)
                0x0000e330                safe_write
 .text.skip_whitespace
                0x0000e384       0x28 libbb/lib.a(skip_whitespace.o)
                0x0000e384                skip_whitespace
 .text.skip_non_whitespace
                0x0000e3ac       0x30 libbb/lib.a(skip_whitespace.o)
                0x0000e3ac                skip_non_whitespace
 .text.bb_verror_msg
                0x0000e3dc      0x1e0 libbb/lib.a(verror_msg.o)
                0x0000e3dc                bb_verror_msg
 .text.fopen_or_warn
                0x0000e5bc       0x44 libbb/lib.a(wfopen.o)
                0x0000e5bc                fopen_or_warn
 .text.fopen_for_read
                0x0000e600       0x24 libbb/lib.a(wfopen.o)
                0x0000e600                fopen_for_read
 .text.xfopen_for_read
                0x0000e624       0x24 libbb/lib.a(wfopen.o)
                0x0000e624                xfopen_for_read
 .text.xfopen_for_write
                0x0000e648       0x24 libbb/lib.a(wfopen.o)
                0x0000e648                xfopen_for_write
 .text.xfunc_die
                0x0000e66c       0x3c libbb/lib.a(xfunc_die.o)
                0x0000e66c                xfunc_die
 .text.ndelay_on
                0x0000e6a8       0x24 libbb/lib.a(xfuncs.o)
                0x0000e6a8                ndelay_on
 .text.ndelay_off
                0x0000e6cc       0x24 libbb/lib.a(xfuncs.o)
                0x0000e6cc                ndelay_off
 .text.close_on_exec_on
                0x0000e6f0        0xc libbb/lib.a(xfuncs.o)
                0x0000e6f0                close_on_exec_on
 .text.smart_ulltoa5
                0x0000e6fc      0x23c libbb/lib.a(xfuncs.o)
                0x0000e6fc                smart_ulltoa5
 .text.utoa_to_buf
                0x0000e938       0x84 libbb/lib.a(xfuncs.o)
                0x0000e938                utoa_to_buf
 .text.itoa_to_buf
                0x0000e9bc       0x28 libbb/lib.a(xfuncs.o)
                0x0000e9bc                itoa_to_buf
 .text.utoa     0x0000e9e4       0x38 libbb/lib.a(xfuncs.o)
                0x0000e9e4                utoa
 .text.itoa     0x0000ea1c       0x38 libbb/lib.a(xfuncs.o)
                0x0000ea1c                itoa
 .text.get_terminal_width_height
                0x0000ea54      0x100 libbb/lib.a(xfuncs.o)
                0x0000ea54                get_terminal_width_height
 .text.malloc_or_warn
                0x0000eb54       0x48 libbb/lib.a(xfuncs_printf.o)
                0x0000eb54                malloc_or_warn
 .text.xmalloc  0x0000eb9c       0x40 libbb/lib.a(xfuncs_printf.o)
                0x0000eb9c                xmalloc
 .text.xrealloc
                0x0000ebdc       0x40 libbb/lib.a(xfuncs_printf.o)
                0x0000ebdc                xrealloc
 .text.xzalloc  0x0000ec1c       0x24 libbb/lib.a(xfuncs_printf.o)
                0x0000ec1c                xzalloc
 .text.xstrdup  0x0000ec40       0x38 libbb/lib.a(xfuncs_printf.o)
                0x0000ec40                xstrdup
 .text.xstrndup
                0x0000ec78       0x58 libbb/lib.a(xfuncs_printf.o)
                0x0000ec78                xstrndup
 .text.xfopen   0x0000ecd0       0x34 libbb/lib.a(xfuncs_printf.o)
                0x0000ecd0                xfopen
 .text.xopen3   0x0000ed04       0x34 libbb/lib.a(xfuncs_printf.o)
                0x0000ed04                xopen3
 .text.xopen    0x0000ed38        0xc libbb/lib.a(xfuncs_printf.o)
                0x0000ed38                xopen
 .text.open3_or_warn
                0x0000ed44       0x38 libbb/lib.a(xfuncs_printf.o)
                0x0000ed44                open3_or_warn
 .text.open_or_warn
                0x0000ed7c        0xc libbb/lib.a(xfuncs_printf.o)
                0x0000ed7c                open_or_warn
 .text.xunlink  0x0000ed88       0x34 libbb/lib.a(xfuncs_printf.o)
                0x0000ed88                xunlink
 .text.xrename  0x0000edbc       0x3c libbb/lib.a(xfuncs_printf.o)
                0x0000edbc                xrename
 .text.xpipe    0x0000edf8       0x2c libbb/lib.a(xfuncs_printf.o)
                0x0000edf8                xpipe
 .text.xdup2    0x0000ee24       0x30 libbb/lib.a(xfuncs_printf.o)
                0x0000ee24                xdup2
 .text.xmove_fd
                0x0000ee54       0x20 libbb/lib.a(xfuncs_printf.o)
                0x0000ee54                xmove_fd
 .text.xwrite   0x0000ee74       0x34 libbb/lib.a(xfuncs_printf.o)
                0x0000ee74                xwrite
 .text.xlseek   0x0000eea8       0x5c libbb/lib.a(xfuncs_printf.o)
                0x0000eea8                xlseek
 .text.bb_putchar
                0x0000ef04       0x28 libbb/lib.a(xfuncs_printf.o)
                0x0000ef04                bb_putchar
 .text.xprint_and_close_file
                0x0000ef2c       0x54 libbb/lib.a(xfuncs_printf.o)
                0x0000ef2c                xprint_and_close_file
 .text.xasprintf
                0x0000ef80       0x50 libbb/lib.a(xfuncs_printf.o)
                0x0000ef80                xasprintf
 .text.xsetenv  0x0000efd0       0x30 libbb/lib.a(xfuncs_printf.o)
                0x0000efd0                xsetenv
 .text.xsetgid  0x0000f000       0x2c libbb/lib.a(xfuncs_printf.o)
                0x0000f000                xsetgid
 .text.xsetuid  0x0000f02c       0x2c libbb/lib.a(xfuncs_printf.o)
                0x0000f02c                xsetuid
 .text.xchdir   0x0000f058       0x34 libbb/lib.a(xfuncs_printf.o)
                0x0000f058                xchdir
 .text.warn_opendir
                0x0000f08c       0x38 libbb/lib.a(xfuncs_printf.o)
                0x0000f08c                warn_opendir
 .text.xopendir
                0x0000f0c4       0x34 libbb/lib.a(xfuncs_printf.o)
                0x0000f0c4                xopendir
 .text.xsocket  0x0000f0f8       0x2c libbb/lib.a(xfuncs_printf.o)
                0x0000f0f8                xsocket
 .text.xbind    0x0000f124       0x2c libbb/lib.a(xfuncs_printf.o)
                0x0000f124                xbind
 .text.xlisten  0x0000f150       0x2c libbb/lib.a(xfuncs_printf.o)
                0x0000f150                xlisten
 .text.xsendto  0x0000f17c       0x44 libbb/lib.a(xfuncs_printf.o)
                0x0000f17c                xsendto
 .text.ioctl_or_perror_and_die
                0x0000f1c0       0x58 libbb/lib.a(xfuncs_printf.o)
                0x0000f1c0                ioctl_or_perror_and_die
 .text.ioctl_or_perror
                0x0000f218       0x58 libbb/lib.a(xfuncs_printf.o)
                0x0000f218                ioctl_or_perror
 .text.bb_ioctl_or_warn
                0x0000f270       0x20 libbb/lib.a(xfuncs_printf.o)
                0x0000f270                bb_ioctl_or_warn
 .text.bb_xioctl
                0x0000f290       0x1c libbb/lib.a(xfuncs_printf.o)
                0x0000f290                bb_xioctl
 .text.xmalloc_readlink
                0x0000f2ac       0x68 libbb/lib.a(xreadlink.o)
                0x0000f2ac                xmalloc_readlink
 .text.xmalloc_follow_symlinks
                0x0000f314       0xcc libbb/lib.a(xreadlink.o)
                0x0000f314                xmalloc_follow_symlinks
 .text.xmalloc_readlink_or_warn
                0x0000f3e0       0x38 libbb/lib.a(xreadlink.o)
                0x0000f3e0                xmalloc_readlink_or_warn
 .text.bb_full_fd_action
                0x0000f418      0x124 libbb/lib.a(copyfd.o)
 .text.bb_copyfd_size
                0x0000f53c       0x18 libbb/lib.a(copyfd.o)
                0x0000f53c                bb_copyfd_size
 .text.bb_copyfd_exact_size
                0x0000f554       0x50 libbb/lib.a(copyfd.o)
                0x0000f554                bb_copyfd_exact_size
 .text.bb_copyfd_eof
                0x0000f5a4        0xc libbb/lib.a(copyfd.o)
                0x0000f5a4                bb_copyfd_eof
 .text.bb_error_msg
                0x0000f5b0       0x24 libbb/lib.a(error_msg.o)
                0x0000f5b0                bb_error_msg
 .text.safe_read
                0x0000f5d4       0x54 libbb/lib.a(read.o)
                0x0000f5d4                safe_read
 .text.nonblock_safe_read
                0x0000f628       0x7c libbb/lib.a(read.o)
                0x0000f628                nonblock_safe_read
 .text.full_read
                0x0000f6a4       0x58 libbb/lib.a(read.o)
                0x0000f6a4                full_read
 .text.xread    0x0000f6fc       0x34 libbb/lib.a(read.o)
                0x0000f6fc                xread
 .text.xread_char
                0x0000f730       0x20 libbb/lib.a(read.o)
                0x0000f730                xread_char
 .text.xmalloc_reads
                0x0000f750       0xd0 libbb/lib.a(read.o)
                0x0000f750                xmalloc_reads
 .text.read_close
                0x0000f820       0x20 libbb/lib.a(read.o)
                0x0000f820                read_close
 .text.open_read_close
                0x0000f840       0x2c libbb/lib.a(read.o)
                0x0000f840                open_read_close
 .text.xmalloc_read
                0x0000f86c       0xf8 libbb/lib.a(read.o)
                0x0000f86c                xmalloc_read
 .text.xmalloc_open_read_close
                0x0000f964       0x38 libbb/lib.a(read.o)
                0x0000f964                xmalloc_open_read_close
 .text.open_zipped
                0x0000f99c      0x11c libbb/lib.a(read.o)
                0x0000f99c                open_zipped
 .text.safe_poll
                0x0000fab8       0x78 libbb/lib.a(safe_poll.o)
                0x0000fab8                safe_poll
 .text.alarm_handler
                0x0000fb30       0x50 loginutils/lib.a(login.o)
 .text.login_main
                0x0000fb80      0x438 loginutils/lib.a(login.o)
                0x0000fb80                login_main
 .text.nuke_str
                0x0000ffb8       0x24 loginutils/lib.a(passwd.o)
 .text.passwd_main
                0x0000ffdc      0x504 loginutils/lib.a(passwd.o)
                0x0000ffdc                passwd_main
 .text.bbconfig_main
                0x000104e0       0x28 miscutils/lib.a(bbconfig.o)
                0x000104e0                bbconfig_main
 .text.mountpoint_main
                0x00010508      0x270 miscutils/lib.a(mountpoint.o)
                0x00010508                mountpoint_main
 .text.mt_main  0x00010778      0x170 miscutils/lib.a(mt.o)
                0x00010778                mt_main
 .text.read_byte
                0x000108e8       0x3c miscutils/lib.a(rx.o)
 .text.sigalrm_handler
                0x00010924        0x4 miscutils/lib.a(rx.o)
 .text.rx_main  0x00010928      0x458 miscutils/lib.a(rx.o)
                0x00010928                rx_main
 .text.setsid_main
                0x00010d80       0x40 miscutils/lib.a(setsid.o)
                0x00010d80                setsid_main
 .text.check_module_name_match
                0x00010dc0       0x64 modutils/lib.a(insmod.o)
 .text.arch_new_section
                0x00010e24        0x8 modutils/lib.a(insmod.o)
 .text.arch_new_symbol
                0x00010e2c        0x8 modutils/lib.a(insmod.o)
 .text.arch_single_init
                0x00010e34       0x2c modutils/lib.a(insmod.o)
 .text.obj_find_section
                0x00010e60       0x54 modutils/lib.a(insmod.o)
 .text.obj_find_symbol
                0x00010eb4       0x64 modutils/lib.a(insmod.o)
 .text.obj_elf_hash_n
                0x00010f18       0x30 modutils/lib.a(insmod.o)
 .text.obj_elf_hash
                0x00010f48       0x1c modutils/lib.a(insmod.o)
 .text.ncv_strcmp
                0x00010f64       0xa0 modutils/lib.a(insmod.o)
 .text.ncv_symbol_hash
                0x00011004       0x40 modutils/lib.a(insmod.o)
 .text.obj_add_symbol
                0x00011044      0x21c modutils/lib.a(insmod.o)
 .text.obj_symbol_final_value
                0x00011260       0x34 modutils/lib.a(insmod.o)
 .text.obj_load_order_prio
                0x00011294       0x88 modutils/lib.a(insmod.o)
 .text.obj_insert_section_load_order
                0x0001131c       0x54 modutils/lib.a(insmod.o)
 .text.obj_create_alloced_section
                0x00011370       0x90 modutils/lib.a(insmod.o)
 .text.obj_extend_section
                0x00011400       0x34 modutils/lib.a(insmod.o)
 .text.arch_xsect_init
                0x00011434       0x54 modutils/lib.a(insmod.o)
 .text.obj_gpl_license
                0x00011488       0xdc modutils/lib.a(insmod.o)
 .text.add_symbols_from
                0x00011564       0xec modutils/lib.a(insmod.o)
 .text.get_modinfo_value
                0x00011650       0xe0 modutils/lib.a(insmod.o)
 .text.obj_string_patch
                0x00011730       0xa8 modutils/lib.a(insmod.o)
 .text.new_process_module_arguments
                0x000117d8      0x5c4 modutils/lib.a(insmod.o)
 .text.new_get_module_version
                0x00011d9c       0xcc modutils/lib.a(insmod.o)
 .text.obj_symbol_patch
                0x00011e68       0x30 modutils/lib.a(insmod.o)
 .text.new_add_ksymtab
                0x00011e98       0xb4 modutils/lib.a(insmod.o)
 .text.new_create_module_ksymtab
                0x00011f4c      0x248 modutils/lib.a(insmod.o)
 .text.obj_allocate_commons
                0x00012194      0x27c modutils/lib.a(insmod.o)
 .text.obj_load
                0x00012410      0x428 modutils/lib.a(insmod.o)
 .text.set_tainted
                0x00012838       0xe8 modutils/lib.a(insmod.o)
 .text.print_load_map
                0x00012920      0x294 modutils/lib.a(insmod.o)
 .text.insmod_main
                0x00012bb4     0x19c8 modutils/lib.a(insmod.o)
                0x00012bb4                insmod_main
 .text.lsmod_main
                0x0001457c      0x21c modutils/lib.a(lsmod.o)
                0x0001457c                lsmod_main
 .text.rmmod_main
                0x00014798      0x17c modutils/lib.a(rmmod.o)
                0x00014798                rmmod_main
 .text.arp_main
                0x00014914      0xb48 networking/lib.a(arp.o)
                0x00014914                arp_main
 .text.finish   0x0001545c       0xc8 networking/lib.a(arping.o)
 .text.catcher  0x00015524      0x1c0 networking/lib.a(arping.o)
 .text.arping_main
                0x000156e4      0x904 networking/lib.a(arping.o)
                0x000156e4                arping_main
 .text.do_sethostname
                0x00015fe8       0xd0 networking/lib.a(hostname.o)
 .text.hostname_main
                0x000160b8      0x148 networking/lib.a(hostname.o)
                0x000160b8                hostname_main
 .text.ifconfig_main
                0x00016200      0x5c8 networking/lib.a(ifconfig.o)
                0x00016200                ifconfig_main
 .text.strncpy_IFNAMSIZ
                0x000167c8        0x8 networking/lib.a(ifenslave.o)
 .text.ioctl_on_skfd
                0x000167d0       0x10 networking/lib.a(ifenslave.o)
 .text.set_ifrname_and_do_ioctl
                0x000167e0       0x28 networking/lib.a(ifenslave.o)
 .text.get_if_settings
                0x00016808       0x54 networking/lib.a(ifenslave.o)
 .text.get_slave_flags
                0x0001685c       0x38 networking/lib.a(ifenslave.o)
 .text.set_hwaddr
                0x00016894       0x34 networking/lib.a(ifenslave.o)
 .text.set_mtu  0x000168c8       0x28 networking/lib.a(ifenslave.o)
 .text.set_if_flags
                0x000168f0       0x28 networking/lib.a(ifenslave.o)
 .text.set_if_up
                0x00016918       0x3c networking/lib.a(ifenslave.o)
 .text.set_if_down
                0x00016954       0x3c networking/lib.a(ifenslave.o)
 .text.enslave  0x00016990      0x2f0 networking/lib.a(ifenslave.o)
 .text.get_drv_info
                0x00016c80      0x104 networking/lib.a(ifenslave.o)
 .text.ifenslave_main
                0x00016d84      0x364 networking/lib.a(ifenslave.o)
                0x00016d84                ifenslave_main
 .text.addstr   0x000170e8       0x54 networking/lib.a(ifupdown.o)
 .text.strncmpz
                0x0001713c       0x20 networking/lib.a(ifupdown.o)
 .text.get_var  0x0001715c       0xd8 networking/lib.a(ifupdown.o)
 .text.execute  0x00017234      0x3cc networking/lib.a(ifupdown.o)
 .text.loopback_up6
                0x00017600       0x60 networking/lib.a(ifupdown.o)
 .text.loopback_down6
                0x00017660       0x30 networking/lib.a(ifupdown.o)
 .text.static_up6
                0x00017690       0x7c networking/lib.a(ifupdown.o)
 .text.static_down6
                0x0001770c       0x30 networking/lib.a(ifupdown.o)
 .text.v4tunnel_up
                0x0001773c       0x98 networking/lib.a(ifupdown.o)
 .text.v4tunnel_down
                0x000177d4       0x30 networking/lib.a(ifupdown.o)
 .text.loopback_up
                0x00017804       0x60 networking/lib.a(ifupdown.o)
 .text.loopback_down
                0x00017864       0x60 networking/lib.a(ifupdown.o)
 .text.static_up
                0x000178c4       0x7c networking/lib.a(ifupdown.o)
 .text.static_down
                0x00017940       0x60 networking/lib.a(ifupdown.o)
 .text.dhcp_up  0x000179a0       0x54 networking/lib.a(ifupdown.o)
 .text.dhcp_down
                0x000179f4       0x60 networking/lib.a(ifupdown.o)
 .text.manual_up_down
                0x00017a54        0x8 networking/lib.a(ifupdown.o)
 .text.bootp_up
                0x00017a5c       0x30 networking/lib.a(ifupdown.o)
 .text.ppp_up   0x00017a8c       0x30 networking/lib.a(ifupdown.o)
 .text.ppp_down
                0x00017abc       0x30 networking/lib.a(ifupdown.o)
 .text.wvdial_up
                0x00017aec       0x30 networking/lib.a(ifupdown.o)
 .text.wvdial_down
                0x00017b1c       0x30 networking/lib.a(ifupdown.o)
 .text.next_word
                0x00017b4c       0x64 networking/lib.a(ifupdown.o)
 .text.setlocalenv
                0x00017bb0       0xac networking/lib.a(ifupdown.o)
 .text.set_environ
                0x00017c5c      0x1f4 networking/lib.a(ifupdown.o)
 .text.doit     0x00017e50       0xd4 networking/lib.a(ifupdown.o)
 .text.execute_all
                0x00017f24       0x84 networking/lib.a(ifupdown.o)
 .text.check    0x00017fa8        0xc networking/lib.a(ifupdown.o)
 .text.iface_up
                0x00017fb4       0xac networking/lib.a(ifupdown.o)
 .text.iface_down
                0x00018060       0xac networking/lib.a(ifupdown.o)
 .text.popen2   0x0001810c      0x104 networking/lib.a(ifupdown.o)
 .text.find_iface_state
                0x00018210       0x64 networking/lib.a(ifupdown.o)
 .text.read_iface_state
                0x00018274       0x80 networking/lib.a(ifupdown.o)
 .text.ifupdown_main
                0x000182f4      0xb58 networking/lib.a(ifupdown.o)
                0x000182f4                ifupdown_main
 .text.INET_sprint
                0x00018e4c       0x6c networking/lib.a(interface.o)
 .text.INET_input
                0x00018eb8        0x8 networking/lib.a(interface.o)
 .text.INET6_sprint
                0x00018ec0       0x68 networking/lib.a(interface.o)
 .text.INET6_input
                0x00018f28        0x4 networking/lib.a(interface.o)
 .text.UNSPEC_print
                0x00018f2c       0x7c networking/lib.a(interface.o)
 .text.UNSPEC_sprint
                0x00018fa8       0x44 networking/lib.a(interface.o)
 .text.get_aftype
                0x00018fec       0x5c networking/lib.a(interface.o)
                0x00018fec                get_aftype
 .text.get_afntype
                0x00019048       0x4c networking/lib.a(interface.o)
 .text.add_interface
                0x00019094       0xac networking/lib.a(interface.o)
 .text.if_readconf
                0x00019140       0xf0 networking/lib.a(interface.o)
 .text.if_readlist_proc
                0x00019230      0x328 networking/lib.a(interface.o)
 .text.do_if_fetch
                0x00019558      0x33c networking/lib.a(interface.o)
 .text.ether_print
                0x00019894       0x68 networking/lib.a(interface.o)
 .text.hexchar2int
                0x000198fc       0x2c networking/lib.a(interface.o)
 .text.ether_input
                0x00019928       0xd8 networking/lib.a(interface.o)
 .text.get_hwtype
                0x00019a00       0x5c networking/lib.a(interface.o)
                0x00019a00                get_hwtype
 .text.get_hwntype
                0x00019a5c       0x4c networking/lib.a(interface.o)
                0x00019a5c                get_hwntype
 .text.print_bytes_scaled
                0x00019aa8       0xb0 networking/lib.a(interface.o)
 .text.ife_print
                0x00019b58      0x64c networking/lib.a(interface.o)
 .text.in_ib    0x0001a1a4      0x114 networking/lib.a(interface.o)
                0x0001a1a4                in_ib
 .text.display_interfaces
                0x0001a2b8       0xe8 networking/lib.a(interface.o)
                0x0001a2b8                display_interfaces
 .text.ip_print_help
                0x0001a3a0        0x8 networking/lib.a(ip.o)
 .text.ip_do    0x0001a3a8       0x1c networking/lib.a(ip.o)
 .text.ipaddr_main
                0x0001a3c4       0x24 networking/lib.a(ip.o)
                0x0001a3c4                ipaddr_main
 .text.iplink_main
                0x0001a3e8       0x24 networking/lib.a(ip.o)
                0x0001a3e8                iplink_main
 .text.iproute_main
                0x0001a40c       0x24 networking/lib.a(ip.o)
                0x0001a40c                iproute_main
 .text.ip_main  0x0001a430       0x8c networking/lib.a(ip.o)
                0x0001a430                ip_main
 .text.build_ipv6_addr
                0x0001a4bc       0x7c networking/lib.a(netstat.o)
 .text.build_ipv4_addr
                0x0001a538       0x34 networking/lib.a(netstat.o)
 .text.ip_port_str
                0x0001a56c       0xb0 networking/lib.a(netstat.o)
 .text.scan_inet_proc_line
                0x0001a61c       0xc8 networking/lib.a(netstat.o)
 .text.print_inet_line
                0x0001a6e4       0xe4 networking/lib.a(netstat.o)
 .text.tcp_do_one
                0x0001a7c8       0x68 networking/lib.a(netstat.o)
 .text.udp_do_one
                0x0001a830       0xdc networking/lib.a(netstat.o)
 .text.raw_do_one
                0x0001a90c       0xac networking/lib.a(netstat.o)
 .text.unix_do_one
                0x0001a9b8      0x2e4 networking/lib.a(netstat.o)
 .text.do_info  0x0001ac9c       0x8c networking/lib.a(netstat.o)
 .text.netstat_main
                0x0001ad28      0x29c networking/lib.a(netstat.o)
                0x0001ad28                netstat_main
 .text.print_stats_and_exit
                0x0001afc4      0x1a0 networking/lib.a(ping.o)
 .text.sendping_tail
                0x0001b164      0x134 networking/lib.a(ping.o)
 .text.sendping4
                0x0001b298      0x108 networking/lib.a(ping.o)
 .text.sendping6
                0x0001b3a0       0x9c networking/lib.a(ping.o)
 .text.unpack_tail
                0x0001b43c      0x184 networking/lib.a(ping.o)
 .text.ping_main
                0x0001b5c0      0x910 networking/lib.a(ping.o)
                0x0001b5c0                ping_main
 .text.ping6_main
                0x0001bed0       0x2c networking/lib.a(ping.o)
                0x0001bed0                ping6_main
 .text.kw_lookup
                0x0001befc       0x74 networking/lib.a(route.o)
 .text.set_flags
                0x0001bf70       0x6c networking/lib.a(route.o)
 .text.bb_displayroutes
                0x0001bfdc      0x214 networking/lib.a(route.o)
                0x0001bfdc                bb_displayroutes
 .text.route_main
                0x0001c1f0      0xa44 networking/lib.a(route.o)
                0x0001c1f0                route_main
 .text.uuencode
                0x0001cc34      0x140 networking/lib.a(sendmail.o)
 .text.kill_helper
                0x0001cd74       0x38 networking/lib.a(sendmail.o)
 .text.signal_handler
                0x0001cdac       0x74 networking/lib.a(sendmail.o)
 .text.launch_helper
                0x0001ce20       0xf8 networking/lib.a(sendmail.o)
 .text.smtp_checkp
                0x0001cf18       0xf4 networking/lib.a(sendmail.o)
 .text.smtp_check
                0x0001d00c        0xc networking/lib.a(sendmail.o)
 .text.sane     0x0001d018       0x74 networking/lib.a(sendmail.o)
 .text.rcptto   0x0001d08c       0x2c networking/lib.a(sendmail.o)
 .text.sendgetmail_main
                0x0001d0b8      0x6c4 networking/lib.a(sendmail.o)
                0x0001d0b8                sendgetmail_main
 .text.alarm_catcher
                0x0001d77c       0xa0 networking/lib.a(telnetd.o)
 .text.make_new_session
                0x0001d81c      0x274 networking/lib.a(telnetd.o)
 .text.free_session
                0x0001da90       0xd8 networking/lib.a(telnetd.o)
 .text.handle_sigchld
                0x0001db68       0x54 networking/lib.a(telnetd.o)
 .text.telnetd_main
                0x0001dbbc      0x850 networking/lib.a(telnetd.o)
                0x0001dbbc                telnetd_main
 .text.tftp_main
                0x0001e40c      0x5b8 networking/lib.a(tftp.o)
                0x0001e40c                tftp_main
 .text.ifaddrlist
                0x0001e9c4      0x1d0 networking/lib.a(traceroute.o)
 .text.setsin   0x0001eb94       0x28 networking/lib.a(traceroute.o)
 .text.in_cksum
                0x0001ebbc       0x50 networking/lib.a(traceroute.o)
 .text.gethostinfo
                0x0001ec0c      0x108 networking/lib.a(traceroute.o)
 .text.freehostinfo
                0x0001ed14       0x24 networking/lib.a(traceroute.o)
 .text.traceroute_main
                0x0001ed38     0x1464 networking/lib.a(traceroute.o)
                0x0001ed38                traceroute_main
 .text.xfind_str
                0x0002019c       0x3c networking/lib.a(vconfig.o)
 .text.vconfig_main
                0x000201d8      0x168 networking/lib.a(vconfig.o)
                0x000201d8                vconfig_main
 .text.progressmeter
                0x00020340      0x4cc networking/lib.a(wget.o)
 .text.safe_fgets
                0x0002080c       0x70 networking/lib.a(wget.o)
 .text.base64enc_512
                0x0002087c       0x54 networking/lib.a(wget.o)
 .text.open_socket
                0x000208d0       0x3c networking/lib.a(wget.o)
 .text.ftpcmd   0x0002090c       0xd4 networking/lib.a(wget.o)
 .text.parse_url
                0x000209e0      0x1b0 networking/lib.a(wget.o)
 .text.gethdr   0x00020b90      0x104 networking/lib.a(wget.o)
 .text.wget_main
                0x00020c94      0xbb0 networking/lib.a(wget.o)
                0x00020c94                wget_main
 .text.ip_parse_common_args
                0x00021844      0x134 networking/libiproute/lib.a(ip_parse_common_args.o)
                0x00021844                ip_parse_common_args
 .text.flush_update
                0x00021978       0x5c networking/libiproute/lib.a(ipaddress.o)
 .text.print_addrinfo
                0x000219d4      0x5f8 networking/libiproute/lib.a(ipaddress.o)
 .text.store_nlmsg
                0x00021fcc       0x70 networking/libiproute/lib.a(ipaddress.o)
 .text.ipaddr_list_or_flush
                0x0002203c      0xa10 networking/libiproute/lib.a(ipaddress.o)
                0x0002203c                ipaddr_list_or_flush
 .text.ipaddr_modify
                0x00022a4c      0x674 networking/libiproute/lib.a(ipaddress.o)
 .text.do_ipaddr
                0x000230c0       0x8c networking/libiproute/lib.a(ipaddress.o)
                0x000230c0                do_ipaddr
 .text.get_ctl_fd
                0x0002314c       0x50 networking/libiproute/lib.a(iplink.o)
 .text.parse_address
                0x0002319c       0x8c networking/libiproute/lib.a(iplink.o)
 .text.set_address
                0x00023228       0x64 networking/libiproute/lib.a(iplink.o)
 .text.die_must_be_on_off
                0x0002328c       0x20 networking/libiproute/lib.a(iplink.o)
 .text.ipaddr_list_link
                0x000232ac       0x30 networking/libiproute/lib.a(iplink.o)
 .text.do_iplink
                0x000232dc      0x4cc networking/libiproute/lib.a(iplink.o)
                0x000232dc                do_iplink
 .text.flush_update
                0x000237a8       0x5c networking/libiproute/lib.a(iproute.o)
 .text.print_route
                0x00023804      0x79c networking/libiproute/lib.a(iproute.o)
 .text.iproute_reset_filter
                0x00023fa0       0x3c networking/libiproute/lib.a(iproute.o)
 .text.iproute_list_or_flush
                0x00023fdc      0x5ec networking/libiproute/lib.a(iproute.o)
 .text.do_iproute
                0x000245c8      0xac4 networking/libiproute/lib.a(iproute.o)
                0x000245c8                do_iproute
 .text.xrtnl_open
                0x0002508c       0xd4 networking/libiproute/lib.a(libnetlink.o)
                0x0002508c                xrtnl_open
 .text.xrtnl_wilddump_request
                0x00025160       0x8c networking/libiproute/lib.a(libnetlink.o)
                0x00025160                xrtnl_wilddump_request
 .text.rtnl_send
                0x000251ec       0x54 networking/libiproute/lib.a(libnetlink.o)
                0x000251ec                rtnl_send
 .text.xrtnl_dump_filter
                0x00025240      0x244 networking/libiproute/lib.a(libnetlink.o)
                0x00025240                xrtnl_dump_filter
 .text.rtnl_talk
                0x00025484      0x2e0 networking/libiproute/lib.a(libnetlink.o)
                0x00025484                rtnl_talk
 .text.addattr32
                0x00025764       0x58 networking/libiproute/lib.a(libnetlink.o)
                0x00025764                addattr32
 .text.addattr_l
                0x000257bc       0x6c networking/libiproute/lib.a(libnetlink.o)
                0x000257bc                addattr_l
 .text.rta_addattr32
                0x00025828       0x58 networking/libiproute/lib.a(libnetlink.o)
                0x00025828                rta_addattr32
 .text.parse_rtattr
                0x00025880       0x7c networking/libiproute/lib.a(libnetlink.o)
                0x00025880                parse_rtattr
 .text.ll_addr_n2a
                0x000258fc       0xcc networking/libiproute/lib.a(ll_addr.o)
                0x000258fc                ll_addr_n2a
 .text.ll_addr_a2n
                0x000259c8      0x100 networking/libiproute/lib.a(ll_addr.o)
                0x000259c8                ll_addr_a2n
 .text.find_by_index
                0x00025ac8       0x4c networking/libiproute/lib.a(ll_map.o)
 .text.ll_remember_index
                0x00025b14      0x134 networking/libiproute/lib.a(ll_map.o)
                0x00025b14                ll_remember_index
 .text.ll_idx_n2a
                0x00025c48       0x60 networking/libiproute/lib.a(ll_map.o)
                0x00025c48                ll_idx_n2a
 .text.ll_index_to_name
                0x00025ca8       0x24 networking/libiproute/lib.a(ll_map.o)
                0x00025ca8                ll_index_to_name
 .text.ll_index_to_flags
                0x00025ccc       0x24 networking/libiproute/lib.a(ll_map.o)
                0x00025ccc                ll_index_to_flags
 .text.xll_name_to_index
                0x00025cf0       0x98 networking/libiproute/lib.a(ll_map.o)
                0x00025cf0                xll_name_to_index
 .text.ll_init_map
                0x00025d88       0x48 networking/libiproute/lib.a(ll_map.o)
                0x00025d88                ll_init_map
 .text.ll_type_n2a
                0x00025dd0       0x90 networking/libiproute/lib.a(ll_types.o)
                0x00025dd0                ll_type_n2a
 .text.rtnl_tab_initialize
                0x00025e60       0xb0 networking/libiproute/lib.a(rt_names.o)
 .text.rtnl_rtprot_initialize
                0x00025f10       0x84 networking/libiproute/lib.a(rt_names.o)
 .text.rtnl_rtprot_a2n
                0x00025f94      0x104 networking/libiproute/lib.a(rt_names.o)
                0x00025f94                rtnl_rtprot_a2n
 .text.rtnl_rtscope_initialize
                0x00026098       0xa0 networking/libiproute/lib.a(rt_names.o)
 .text.rtnl_rtscope_n2a
                0x00026138       0x88 networking/libiproute/lib.a(rt_names.o)
                0x00026138                rtnl_rtscope_n2a
 .text.rtnl_rtscope_a2n
                0x000261c0      0x104 networking/libiproute/lib.a(rt_names.o)
                0x000261c0                rtnl_rtscope_a2n
 .text.rtnl_rtntype_n2a
                0x000262c4      0x108 networking/libiproute/lib.a(rtm_map.o)
                0x000262c4                rtnl_rtntype_n2a
 .text.rtnl_rtntype_a2n
                0x000263cc      0x104 networking/libiproute/lib.a(rtm_map.o)
                0x000263cc                rtnl_rtntype_a2n
 .text.get_integer
                0x000264d0       0x64 networking/libiproute/lib.a(utils.o)
                0x000264d0                get_integer
 .text.get_unsigned
                0x00026534       0x64 networking/libiproute/lib.a(utils.o)
                0x00026534                get_unsigned
 .text.get_addr_1
                0x00026598      0x184 networking/libiproute/lib.a(utils.o)
                0x00026598                get_addr_1
 .text.get_prefix_1
                0x0002671c      0x110 networking/libiproute/lib.a(utils.o)
                0x0002671c                get_prefix_1
 .text.get_addr
                0x0002682c       0x44 networking/libiproute/lib.a(utils.o)
                0x0002682c                get_addr
 .text.get_prefix
                0x00026870       0x44 networking/libiproute/lib.a(utils.o)
                0x00026870                get_prefix
 .text.incomplete_command
                0x000268b4       0x1c networking/libiproute/lib.a(utils.o)
                0x000268b4                incomplete_command
 .text.invarg   0x000268d0       0x28 networking/libiproute/lib.a(utils.o)
                0x000268d0                invarg
 .text.duparg   0x000268f8       0x28 networking/libiproute/lib.a(utils.o)
                0x000268f8                duparg
 .text.duparg2  0x00026920       0x28 networking/libiproute/lib.a(utils.o)
                0x00026920                duparg2
 .text.inet_addr_match
                0x00026948       0x88 networking/libiproute/lib.a(utils.o)
                0x00026948                inet_addr_match
 .text.rt_addr_n2a
                0x000269d0       0x44 networking/libiproute/lib.a(utils.o)
                0x000269d0                rt_addr_n2a
 .text.format_host
                0x00026a14        0xc networking/libiproute/lib.a(utils.o)
                0x00026a14                format_host
 .text.change_listen_mode
                0x00026a20       0x4c networking/udhcp/lib.a(dhcpc.o)
 .text.perform_release
                0x00026a6c       0xb8 networking/udhcp/lib.a(dhcpc.o)
 .text.client_background
                0x00026b24       0x4c networking/udhcp/lib.a(dhcpc.o)
 .text.alloc_dhcp_option
                0x00026b70       0x58 networking/udhcp/lib.a(dhcpc.o)
 .text.udhcpc_main
                0x00026bc8      0xb64 networking/udhcp/lib.a(dhcpc.o)
                0x00026bc8                udhcpc_main
 .text.udhcp_get_option
                0x0002772c      0x120 networking/udhcp/lib.a(options.o)
                0x0002772c                udhcp_get_option
 .text.udhcp_end_option
                0x0002784c       0x3c networking/udhcp/lib.a(options.o)
                0x0002784c                udhcp_end_option
 .text.udhcp_add_option_string
                0x00027888       0x80 networking/udhcp/lib.a(options.o)
                0x00027888                udhcp_add_option_string
 .text.udhcp_add_simple_option
                0x00027908       0xac networking/udhcp/lib.a(options.o)
                0x00027908                udhcp_add_simple_option
 .text.udhcp_init_header
                0x000279b4       0x80 networking/udhcp/lib.a(packet.o)
                0x000279b4                udhcp_init_header
 .text.udhcp_recv_kernel_packet
                0x00027a34       0xec networking/udhcp/lib.a(packet.o)
                0x00027a34                udhcp_recv_kernel_packet
 .text.udhcp_checksum
                0x00027b20       0x70 networking/udhcp/lib.a(packet.o)
                0x00027b20                udhcp_checksum
 .text.udhcp_send_raw_packet
                0x00027b90      0x228 networking/udhcp/lib.a(packet.o)
                0x00027b90                udhcp_send_raw_packet
 .text.udhcp_send_kernel_packet
                0x00027db8      0x144 networking/udhcp/lib.a(packet.o)
                0x00027db8                udhcp_send_kernel_packet
 .text.sprintip
                0x00027efc       0x4c networking/udhcp/lib.a(script.o)
 .text.udhcp_run_script
                0x00027f48      0x6c4 networking/udhcp/lib.a(script.o)
                0x00027f48                udhcp_run_script
 .text.signal_handler
                0x0002860c       0x50 networking/udhcp/lib.a(signalpipe.o)
 .text.udhcp_sp_setup
                0x0002865c       0x54 networking/udhcp/lib.a(signalpipe.o)
                0x0002865c                udhcp_sp_setup
 .text.udhcp_sp_fd_set
                0x000286b0       0x8c networking/udhcp/lib.a(signalpipe.o)
                0x000286b0                udhcp_sp_fd_set
 .text.udhcp_sp_read
                0x0002873c       0x60 networking/udhcp/lib.a(signalpipe.o)
                0x0002873c                udhcp_sp_read
 .text.udhcp_read_interface
                0x0002879c      0x13c networking/udhcp/lib.a(socket.o)
                0x0002879c                udhcp_read_interface
 .text.udhcp_listen_socket
                0x000288d8       0xe0 networking/udhcp/lib.a(socket.o)
                0x000288d8                udhcp_listen_socket
 .text.arpping  0x000289b8      0x200 networking/udhcp/lib.a(arpping.o)
                0x000289b8                arpping
 .text.random_xid
                0x00028bb8       0x40 networking/udhcp/lib.a(clientpacket.o)
                0x00028bb8                random_xid
 .text.init_packet
                0x00028bf8       0x90 networking/udhcp/lib.a(clientpacket.o)
 .text.add_param_req_option
                0x00028c88       0xd8 networking/udhcp/lib.a(clientpacket.o)
 .text.send_decline
                0x00028d60       0xb0 networking/udhcp/lib.a(clientpacket.o)
                0x00028d60                send_decline
 .text.send_discover
                0x00028e10       0xb8 networking/udhcp/lib.a(clientpacket.o)
                0x00028e10                send_discover
 .text.send_selecting
                0x00028ec8       0xc4 networking/udhcp/lib.a(clientpacket.o)
                0x00028ec8                send_selecting
 .text.send_renew
                0x00028f8c       0xc0 networking/udhcp/lib.a(clientpacket.o)
                0x00028f8c                send_renew
 .text.send_release
                0x0002904c       0x7c networking/udhcp/lib.a(clientpacket.o)
                0x0002904c                send_release
 .text.udhcp_recv_raw_packet
                0x000290c8      0x1cc networking/udhcp/lib.a(clientpacket.o)
                0x000290c8                udhcp_recv_raw_packet
 .text.raw_socket
                0x00029294       0x78 networking/udhcp/lib.a(clientsocket.o)
                0x00029294                raw_socket
 .text.dname_dec
                0x0002930c      0x1a0 networking/udhcp/lib.a(domain_codec.o)
                0x0002930c                dname_dec
 .text.kill_main
                0x000294ac      0x364 procps/lib.a(kill.o)
                0x000294ac                kill_main
 .text.ps_main  0x00029810      0x164 procps/lib.a(ps.o)
                0x00029810                ps_main
 .text.pid_sort
                0x00029974       0x10 procps/lib.a(top.o)
 .text.mem_sort
                0x00029984       0x20 procps/lib.a(top.o)
 .text.pcpu_sort
                0x000299a4       0x10 procps/lib.a(top.o)
 .text.time_sort
                0x000299b4       0x20 procps/lib.a(top.o)
 .text.mult_lvl_cmp
                0x000299d4       0x54 procps/lib.a(top.o)
 .text.do_stats
                0x00029a28      0x248 procps/lib.a(top.o)
 .text.display_process_list
                0x00029c70      0x66c procps/lib.a(top.o)
 .text.clearmems
                0x0002a2dc       0x38 procps/lib.a(top.o)
 .text.reset_term
                0x0002a314       0x30 procps/lib.a(top.o)
 .text.sig_catcher
                0x0002a344       0x10 procps/lib.a(top.o)
 .text.top_main
                0x0002a354      0x414 procps/lib.a(top.o)
                0x0002a354                top_main
 .text.raise_exception
                0x0002a768       0x3c shell/lib.a(ash.o)
 .text.raise_interrupt
                0x0002a7a4       0x78 shell/lib.a(ash.o)
 .text.int_on   0x0002a81c       0x48 shell/lib.a(ash.o)
 .text.force_int_on
                0x0002a864       0x38 shell/lib.a(ash.o)
 .text.ignoresig
                0x0002a89c       0x48 shell/lib.a(ash.o)
 .text.onsig    0x0002a8e4       0x5c shell/lib.a(ash.o)
 .text.outstr   0x0002a940       0x38 shell/lib.a(ash.o)
 .text.flush_stdout_stderr
                0x0002a978       0x5c shell/lib.a(ash.o)
 .text.flush_stderr
                0x0002a9d4       0x48 shell/lib.a(ash.o)
 .text.outcslow
                0x0002aa1c       0x44 shell/lib.a(ash.o)
 .text.out1fmt  0x0002aa60       0x54 shell/lib.a(ash.o)
 .text.fmtstr   0x0002aab4       0x54 shell/lib.a(ash.o)
 .text.out1str  0x0002ab08       0x28 shell/lib.a(ash.o)
 .text.out2str  0x0002ab30       0x2c shell/lib.a(ash.o)
 .text.freefunc
                0x0002ab5c       0x20 shell/lib.a(ash.o)
 .text.ash_vmsg
                0x0002ab7c       0xf8 shell/lib.a(ash.o)
 .text.ash_vmsg_and_raise
                0x0002ac74       0x1c shell/lib.a(ash.o)
 .text.ash_msg_and_raise_error
                0x0002ac90       0x14 shell/lib.a(ash.o)
 .text.ash_msg_and_raise
                0x0002aca4       0x10 shell/lib.a(ash.o)
 .text.ash_msg  0x0002acb4       0x20 shell/lib.a(ash.o)
 .text.errmsg   0x0002acd4       0x14 shell/lib.a(ash.o)
 .text.ckrealloc
                0x0002ace8       0x2c shell/lib.a(ash.o)
 .text.ckmalloc
                0x0002ad14        0xc shell/lib.a(ash.o)
 .text.ckzalloc
                0x0002ad20       0x1c shell/lib.a(ash.o)
 .text.ckstrdup
                0x0002ad3c       0x2c shell/lib.a(ash.o)
 .text.stalloc  0x0002ad68       0xbc shell/lib.a(ash.o)
 .text.stzalloc
                0x0002ae24       0x1c shell/lib.a(ash.o)
 .text.stunalloc
                0x0002ae40       0x3c shell/lib.a(ash.o)
 .text.ststrdup
                0x0002ae7c       0x28 shell/lib.a(ash.o)
 .text.setstackmark
                0x0002aea4       0x3c shell/lib.a(ash.o)
 .text.popstackmark
                0x0002aee0       0xbc shell/lib.a(ash.o)
 .text.growstackblock
                0x0002af9c      0x134 shell/lib.a(ash.o)
 .text.growstackstr
                0x0002b0d0       0x64 shell/lib.a(ash.o)
 .text.makestrspace
                0x0002b134       0x58 shell/lib.a(ash.o)
 .text.stack_nputstr
                0x0002b18c       0x2c shell/lib.a(ash.o)
 .text.stack_putstr
                0x0002b1b8       0x24 shell/lib.a(ash.o)
 .text._STPUTC  0x0002b1dc       0x44 shell/lib.a(ash.o)
 .text.prefix   0x0002b220       0x34 shell/lib.a(ash.o)
 .text.is_number
                0x0002b254       0x2c shell/lib.a(ash.o)
 .text.number   0x0002b280       0x3c shell/lib.a(ash.o)
 .text.single_quote
                0x0002b2bc       0xe4 shell/lib.a(ash.o)
 .text.nextopt  0x0002b3a0      0x138 shell/lib.a(ash.o)
 .text.freeparam
                0x0002b4d8       0x40 shell/lib.a(ash.o)
 .text.change_lc_all
                0x0002b518       0x20 shell/lib.a(ash.o)
 .text.change_lc_ctype
                0x0002b538       0x20 shell/lib.a(ash.o)
 .text.endofname
                0x0002b558       0x4c shell/lib.a(ash.o)
 .text.varcmp   0x0002b5a4       0x44 shell/lib.a(ash.o)
 .text.varequal
                0x0002b5e8       0x14 shell/lib.a(ash.o)
 .text.hashvar  0x0002b5fc       0x60 shell/lib.a(ash.o)
 .text.vpcmp    0x0002b65c        0xc shell/lib.a(ash.o)
 .text.findvar  0x0002b668       0x40 shell/lib.a(ash.o)
 .text.lookupvar
                0x0002b6a8       0x5c shell/lib.a(ash.o)
 .text.bltinlookup
                0x0002b704       0x68 shell/lib.a(ash.o)
 .text.setvareq
                0x0002b76c      0x12c shell/lib.a(ash.o)
 .text.setvar   0x0002b898       0xfc shell/lib.a(ash.o)
 .text.unsetvar
                0x0002b994       0xbc shell/lib.a(ash.o)
 .text.listsetvar
                0x0002ba50       0x58 shell/lib.a(ash.o)
 .text.listvars
                0x0002baa8       0xe4 shell/lib.a(ash.o)
 .text.padvance
                0x0002bb8c      0x12c shell/lib.a(ash.o)
 .text.setprompt
                0x0002bcb8       0x90 shell/lib.a(ash.o)
 .text.cdopt    0x0002bd48       0x48 shell/lib.a(ash.o)
 .text.setpwd   0x0002bd90      0x114 shell/lib.a(ash.o)
 .text.cdcmd    0x0002bea4      0x430 shell/lib.a(ash.o)
 .text.pwdcmd   0x0002c2d4       0x68 shell/lib.a(ash.o)
 .text.SIT      0x0002c33c       0x94 shell/lib.a(ash.o)
 .text.__lookupalias
                0x0002c3d0       0x94 shell/lib.a(ash.o)
 .text.lookupalias
                0x0002c464       0x38 shell/lib.a(ash.o)
 .text.freealias
                0x0002c49c       0x40 shell/lib.a(ash.o)
 .text.unalias  0x0002c4dc       0x5c shell/lib.a(ash.o)
 .text.printalias
                0x0002c538       0x3c shell/lib.a(ash.o)
 .text.aliascmd
                0x0002c574      0x180 shell/lib.a(ash.o)
 .text.unaliascmd
                0x0002c6f4      0x138 shell/lib.a(ash.o)
 .text.setsignal
                0x0002c82c      0x1c0 shell/lib.a(ash.o)
 .text.set_curjob
                0x0002c9ec       0x78 shell/lib.a(ash.o)
 .text.jobno    0x0002ca64       0x44 shell/lib.a(ash.o)
 .text.getjob   0x0002caa8      0x19c shell/lib.a(ash.o)
 .text.freejob  0x0002cc44       0x90 shell/lib.a(ash.o)
 .text.xtcsetpgrp
                0x0002ccd4       0x2c shell/lib.a(ash.o)
 .text.setjobctl
                0x0002cd00      0x1d8 shell/lib.a(ash.o)
 .text.killcmd  0x0002ced8       0xac shell/lib.a(ash.o)
 .text.showpipe
                0x0002cf84       0x68 shell/lib.a(ash.o)
 .text.sprint_status
                0x0002cfec       0xe4 shell/lib.a(ash.o)
 .text.dowait   0x0002d0d0      0x1e4 shell/lib.a(ash.o)
 .text.showjob  0x0002d2b4      0x200 shell/lib.a(ash.o)
 .text.showjobs
                0x0002d4b4       0x78 shell/lib.a(ash.o)
 .text.jobscmd  0x0002d52c       0xac shell/lib.a(ash.o)
 .text.getstatus
                0x0002d5d8       0x4c shell/lib.a(ash.o)
 .text.waitforjob
                0x0002d624       0xa0 shell/lib.a(ash.o)
 .text.fg_bgcmd
                0x0002d6c4      0x16c shell/lib.a(ash.o)
 .text.waitcmd  0x0002d830      0x140 shell/lib.a(ash.o)
 .text.makejob  0x0002d970      0x1d0 shell/lib.a(ash.o)
 .text.cmdputs  0x0002db40      0x218 shell/lib.a(ash.o)
 .text.cmdtxt   0x0002dd58      0x378 shell/lib.a(ash.o)
 .text.cmdlist  0x0002e0d0       0x64 shell/lib.a(ash.o)
 .text.stoppedjobs
                0x0002e134       0x74 shell/lib.a(ash.o)
 .text.copyfd   0x0002e1a8       0x70 shell/lib.a(ash.o)
 .text.need_to_remember
                0x0002e218       0x44 shell/lib.a(ash.o)
 .text.is_hidden_fd
                0x0002e25c       0x94 shell/lib.a(ash.o)
 .text.popredir
                0x0002e2f0      0x100 shell/lib.a(ash.o)
 .text.clearredir
                0x0002e3f0       0x44 shell/lib.a(ash.o)
 .text.cvtnum   0x0002e434       0x68 shell/lib.a(ash.o)
 .text.esclen   0x0002e49c       0x38 shell/lib.a(ash.o)
 .text._rmescapes
                0x0002e4d4      0x150 shell/lib.a(ash.o)
 .text.preglob  0x0002e624       0x10 shell/lib.a(ash.o)
 .text.memtodest
                0x0002e634       0x90 shell/lib.a(ash.o)
 .text.recordregion
                0x0002e6c4       0x8c shell/lib.a(ash.o)
 .text.removerecordregions
                0x0002e750      0x164 shell/lib.a(ash.o)
 .text.scanleft
                0x0002e8b4       0x7c shell/lib.a(ash.o)
 .text.scanright
                0x0002e930       0xa4 shell/lib.a(ash.o)
 .text.varunset
                0x0002e9d4       0x84 shell/lib.a(ash.o)
 .text.addfname
                0x0002ea58       0x48 shell/lib.a(ash.o)
 .text.expmeta  0x0002eaa0      0x2e0 shell/lib.a(ash.o)
 .text.msort    0x0002ed80       0xbc shell/lib.a(ash.o)
 .text.tryexec  0x0002ee3c       0xc0 shell/lib.a(ash.o)
 .text.shellexec
                0x0002eefc      0x13c shell/lib.a(ash.o)
 .text.clearcmdentry
                0x0002f038       0xc4 shell/lib.a(ash.o)
 .text.cmdlookup
                0x0002f0fc       0xec shell/lib.a(ash.o)
 .text.delete_cmd_entry
                0x0002f1e8       0x68 shell/lib.a(ash.o)
 .text.changepath
                0x0002f250      0x11c shell/lib.a(ash.o)
 .text.tokname  0x0002f36c       0x6c shell/lib.a(ash.o)
 .text.pstrcmp  0x0002f3d8        0xc shell/lib.a(ash.o)
 .text.findkwd  0x0002f3e4       0x48 shell/lib.a(ash.o)
 .text.sizenodelist
                0x0002f42c       0x48 shell/lib.a(ash.o)
 .text.calcsize
                0x0002f474      0x154 shell/lib.a(ash.o)
 .text.nodeckstrdup
                0x0002f5c8       0x50 shell/lib.a(ash.o)
 .text.copynodelist
                0x0002f618       0x6c shell/lib.a(ash.o)
 .text.copynode
                0x0002f684      0x168 shell/lib.a(ash.o)
 .text.optschanged
                0x0002f7ec       0x70 shell/lib.a(ash.o)
 .text.localcmd
                0x0002f85c      0x150 shell/lib.a(ash.o)
 .text.falsecmd
                0x0002f9ac        0x8 shell/lib.a(ash.o)
 .text.truecmd  0x0002f9b4        0x8 shell/lib.a(ash.o)
 .text.execcmd  0x0002f9bc       0x64 shell/lib.a(ash.o)
 .text.returncmd
                0x0002fa20       0x64 shell/lib.a(ash.o)
 .text.find_builtin
                0x0002fa84       0x44 shell/lib.a(ash.o)
 .text.isassignment
                0x0002fac8       0x30 shell/lib.a(ash.o)
 .text.bltincmd
                0x0002faf8       0x24 shell/lib.a(ash.o)
 .text.evalbltin
                0x0002fb1c      0x120 shell/lib.a(ash.o)
 .text.goodname
                0x0002fc3c       0x18 shell/lib.a(ash.o)
 .text.breakcmd
                0x0002fc54       0x9c shell/lib.a(ash.o)
 .text.popstring
                0x0002fcf0       0xf8 shell/lib.a(ash.o)
 .text.pgetc    0x0002fde8      0x330 shell/lib.a(ash.o)
 .text.pgetc2   0x00030118       0x14 shell/lib.a(ash.o)
 .text.pungetc  0x0003012c       0x44 shell/lib.a(ash.o)
 .text.pushstring
                0x00030170       0xcc shell/lib.a(ash.o)
 .text.pushfile
                0x0003023c       0x90 shell/lib.a(ash.o)
 .text.popfile  0x000302cc       0xd4 shell/lib.a(ash.o)
 .text.popallfiles
                0x000303a0       0x50 shell/lib.a(ash.o)
 .text.forkshell
                0x000303f0      0x3b0 shell/lib.a(ash.o)
 .text.setinputfile
                0x000307a0      0x134 shell/lib.a(ash.o)
 .text.setinputstring
                0x000308d4       0x90 shell/lib.a(ash.o)
 .text.setparam
                0x00030964       0x9c shell/lib.a(ash.o)
 .text.options  0x00030a00      0x340 shell/lib.a(ash.o)
 .text.shiftcmd
                0x00030d40       0xcc shell/lib.a(ash.o)
 .text.showvars
                0x00030e0c       0xe4 shell/lib.a(ash.o)
 .text.setcmd   0x00030ef0       0x94 shell/lib.a(ash.o)
 .text.change_random
                0x00030f84       0xc8 shell/lib.a(ash.o)
 .text.raise_error_syntax
                0x0003104c       0x20 shell/lib.a(ash.o)
 .text.raise_error_unexpected_syntax
                0x0003106c       0x78 shell/lib.a(ash.o)
 .text.makename
                0x000310e4       0x4c shell/lib.a(ash.o)
 .text.fixredir
                0x00031130       0x94 shell/lib.a(ash.o)
 .text.xxreadtoken
                0x000311c4      0x1d8 shell/lib.a(ash.o)
 .text.readtoken
                0x0003139c      0x118 shell/lib.a(ash.o)
 .text.parsefname
                0x000314b4      0x160 shell/lib.a(ash.o)
 .text.peektoken
                0x00031614       0x40 shell/lib.a(ash.o)
 .text.list     0x00031654      0x1d4 shell/lib.a(ash.o)
 .text.readtoken1
                0x00031828     0x1078 shell/lib.a(ash.o)
 .text.parseheredoc
                0x000328a0       0xc0 shell/lib.a(ash.o)
 .text.parse_command
                0x00032960      0x814 shell/lib.a(ash.o)
 .text.pipeline
                0x00033174       0xfc shell/lib.a(ash.o)
 .text.parsecmd
                0x00033270       0x7c shell/lib.a(ash.o)
 .text.exitcmd  0x000332ec       0x4c shell/lib.a(ash.o)
 .text.trapcmd  0x00033338      0x158 shell/lib.a(ash.o)
 .text.exportcmd
                0x00033490       0xd4 shell/lib.a(ash.o)
 .text.unsetcmd
                0x00033564       0xa8 shell/lib.a(ash.o)
 .text.timescmd
                0x0003360c       0xc4 shell/lib.a(ash.o)
 .text.readcmd  0x000336d0      0x52c shell/lib.a(ash.o)
 .text.umaskcmd
                0x00033bfc      0x1f0 shell/lib.a(ash.o)
 .text.printlim
                0x00033dec       0x6c shell/lib.a(ash.o)
 .text.ulimitcmd
                0x00033e58      0x260 shell/lib.a(ash.o)
 .text.arith    0x000340b8      0x8f4 shell/lib.a(ash.o)
 .text.dash_arith
                0x000349ac       0xac shell/lib.a(ash.o)
 .text.letcmd   0x00034a58       0x50 shell/lib.a(ash.o)
 .text.argstr   0x00034aa8      0x708 shell/lib.a(ash.o)
 .text.expandarg
                0x000351b0      0x4f0 shell/lib.a(ash.o)
 .text.expredir
                0x000356a0       0xc4 shell/lib.a(ash.o)
 .text.redirect
                0x00035764      0x5d4 shell/lib.a(ash.o)
 .text.redirectsafe
                0x00035d38       0xd0 shell/lib.a(ash.o)
 .text.evaltree
                0x00035e08      0x478 shell/lib.a(ash.o)
 .text.evalstring
                0x00036280       0x94 shell/lib.a(ash.o)
 .text.evalcmd  0x00036314       0xac shell/lib.a(ash.o)
 .text.cmdloop  0x000363c0      0x13c shell/lib.a(ash.o)
 .text.find_command
                0x000364fc      0x434 shell/lib.a(ash.o)
 .text.describe_command
                0x00036930      0x238 shell/lib.a(ash.o)
 .text.typecmd  0x00036b68       0x60 shell/lib.a(ash.o)
 .text.commandcmd
                0x00036bc8       0x7c shell/lib.a(ash.o)
 .text.hashcmd  0x00036c44      0x1c8 shell/lib.a(ash.o)
 .text.evalpipe
                0x00036e0c      0x1cc shell/lib.a(ash.o)
 .text.dotcmd   0x00036fd8      0x18c shell/lib.a(ash.o)
 .text.evalloop
                0x00037164      0x130 shell/lib.a(ash.o)
 .text.evalfun  0x00037294      0x25c shell/lib.a(ash.o)
 .text.evalsubshell
                0x000374f0       0xe4 shell/lib.a(ash.o)
 .text.evalfor  0x000375d4      0x178 shell/lib.a(ash.o)
 .text.evalcommand
                0x0003774c      0x634 shell/lib.a(ash.o)
 .text.subevalvar
                0x00037d80      0x678 shell/lib.a(ash.o)
 .text.evalvar  0x000383f8      0x6f0 shell/lib.a(ash.o)
 .text.evalcase
                0x00038ae8      0x1b0 shell/lib.a(ash.o)
 .text.arith_lookup_val
                0x00038c98       0xc0 shell/lib.a(ash.o)
 .text.exitshell
                0x00038d58       0x98 shell/lib.a(ash.o)
 .text.read_profile
                0x00038df0       0x30 shell/lib.a(ash.o)
 .text.ash_main
                0x00038e20      0x71c shell/lib.a(ash.o)
                0x00038e20                ash_main
 .text.dmesg_main
                0x0003953c      0x114 util-linux/lib.a(dmesg.o)
                0x0003953c                dmesg_main
 .text.verbose_mount
                0x00039650       0x94 util-linux/lib.a(mount.o)
 .text.append_mount_options
                0x000396e4      0x100 util-linux/lib.a(mount.o)
 .text.parse_mount_options
                0x000397e4      0x12c util-linux/lib.a(mount.o)
 .text.mount_it_now
                0x00039910      0x118 util-linux/lib.a(mount.o)
 .text.nfs_strerror
                0x00039a28       0x74 util-linux/lib.a(mount.o)
 .text.xdr_fhstatus
                0x00039a9c       0x44 util-linux/lib.a(mount.o)
 .text.xdr_dirpath
                0x00039ae0       0x18 util-linux/lib.a(mount.o)
 .text.xdr_mountres3
                0x00039af8       0x94 util-linux/lib.a(mount.o)
 .text.daemonize
                0x00039b8c       0xb0 util-linux/lib.a(mount.o)
 .text.error_msg_rpc
                0x00039c3c       0x78 util-linux/lib.a(mount.o)
 .text.singlemount
                0x00039cb4     0x1440 util-linux/lib.a(mount.o)
 .text.mount_main
                0x0003b0f4      0x458 util-linux/lib.a(mount.o)
                0x0003b0f4                mount_main
 .text.pivot_root_main
                0x0003b54c       0x2c util-linux/lib.a(pivot_root.o)
                0x0003b54c                pivot_root_main
 .text.handle_sigchld
                0x0003b578       0x28 util-linux/lib.a(script.o)
 .text.script_main
                0x0003b5a0      0x490 util-linux/lib.a(script.o)
                0x0003b5a0                script_main
 .text.umount_main
                0x0003ba30      0x318 util-linux/lib.a(umount.o)
                0x0003ba30                umount_main
 .text.open_to_or_warn
                0x0003bd48       0x38 archival/lib.a(bbunzip.o)
 .text.bbunpack
                0x0003bd80      0x1e4 archival/lib.a(bbunzip.o)
                0x0003bd80                bbunpack
 .text.make_new_name_gunzip
                0x0003bf64       0xc0 archival/lib.a(bbunzip.o)
 .text.unpack_gunzip
                0x0003c024       0x90 archival/lib.a(bbunzip.o)
 .text.gunzip_main
                0x0003c0b4       0x90 archival/lib.a(bbunzip.o)
                0x0003c0b4                gunzip_main
 .text.flush_outbuf
                0x0003c144       0x44 archival/lib.a(gzip.o)
 .text.put_16bit
                0x0003c188       0x94 archival/lib.a(gzip.o)
 .text.put_32bit
                0x0003c21c       0x20 archival/lib.a(gzip.o)
 .text.file_read
                0x0003c23c       0x90 archival/lib.a(gzip.o)
 .text.send_bits
                0x0003c2cc       0x8c archival/lib.a(gzip.o)
 .text.bi_reverse
                0x0003c358       0x28 archival/lib.a(gzip.o)
 .text.bi_windup
                0x0003c380       0x78 archival/lib.a(gzip.o)
 .text.copy_block
                0x0003c3f8       0x88 archival/lib.a(gzip.o)
 .text.fill_window
                0x0003c480      0x158 archival/lib.a(gzip.o)
 .text.init_block
                0x0003c5d8       0xe8 archival/lib.a(gzip.o)
 .text.pqdownheap
                0x0003c6c0      0x124 archival/lib.a(gzip.o)
 .text.gen_codes
                0x0003c7e4       0xc0 archival/lib.a(gzip.o)
 .text.build_tree
                0x0003c8a4      0x500 archival/lib.a(gzip.o)
 .text.scan_tree
                0x0003cda4      0x14c archival/lib.a(gzip.o)
 .text.send_tree
                0x0003cef0      0x1ac archival/lib.a(gzip.o)
 .text.ct_tally
                0x0003d09c      0x264 archival/lib.a(gzip.o)
 .text.compress_block
                0x0003d300      0x1c8 archival/lib.a(gzip.o)
 .text.flush_block
                0x0003d4c8      0x310 archival/lib.a(gzip.o)
 .text.make_new_name_gzip
                0x0003d7d8       0x28 archival/lib.a(gzip.o)
 .text.pack_gzip
                0x0003d800      0x990 archival/lib.a(gzip.o)
 .text.gzip_main
                0x0003e190      0x1f0 archival/lib.a(gzip.o)
                0x0003e190                gzip_main
 .text.putOctal
                0x0003e380       0x70 archival/lib.a(tar.o)
 .text.chksum_and_xwrite
                0x0003e3f0       0x88 archival/lib.a(tar.o)
 .text.writeLongname
                0x0003e478      0x120 archival/lib.a(tar.o)
 .text.writeFileToTarball
                0x0003e598      0x738 archival/lib.a(tar.o)
 .text.vfork_compressor
                0x0003ecd0      0x118 archival/lib.a(tar.o)
 .text.writeTarFile
                0x0003ede8      0x16c archival/lib.a(tar.o)
 .text.append_file_list_to_list
                0x0003ef54       0x84 archival/lib.a(tar.o)
 .text.get_header_tar_Z
                0x0003efd8       0x98 archival/lib.a(tar.o)
 .text.tar_main
                0x0003f070      0x390 archival/lib.a(tar.o)
                0x0003f070                tar_main
 .text.unzip_skip
                0x0003f400       0x10 archival/lib.a(unzip.o)
 .text.unzip_create_leading_dirs
                0x0003f410       0x4c archival/lib.a(unzip.o)
 .text.unzip_main
                0x0003f45c      0x874 archival/lib.a(unzip.o)
                0x0003f45c                unzip_main
 .text.data_extract_all
                0x0003fcd0      0x37c archival/libunarchive/lib.a(data_extract_all.o)
                0x0003fcd0                data_extract_all
 .text.data_extract_to_stdout
                0x0004004c       0x18 archival/libunarchive/lib.a(data_extract_to_stdout.o)
                0x0004004c                data_extract_to_stdout
 .text.data_skip
                0x00040064       0x18 archival/libunarchive/lib.a(data_skip.o)
                0x00040064                data_skip
 .text.get_bits
                0x0004007c       0xd4 archival/libunarchive/lib.a(decompress_bunzip2.o)
 .text.get_next_block
                0x00040150      0x8ac archival/libunarchive/lib.a(decompress_bunzip2.o)
 .text.read_bunzip
                0x000409fc      0x168 archival/libunarchive/lib.a(decompress_bunzip2.o)
                0x000409fc                read_bunzip
 .text.start_bunzip
                0x00040b64       0xec archival/libunarchive/lib.a(decompress_bunzip2.o)
                0x00040b64                start_bunzip
 .text.dealloc_bunzip
                0x00040c50       0x1c archival/libunarchive/lib.a(decompress_bunzip2.o)
                0x00040c50                dealloc_bunzip
 .text.unpack_bz2_stream
                0x00040c6c       0xf4 archival/libunarchive/lib.a(decompress_bunzip2.o)
                0x00040c6c                unpack_bz2_stream
 .text.unpack_bz2_stream_prime
                0x00040d60       0x64 archival/libunarchive/lib.a(decompress_bunzip2.o)
                0x00040d60                unpack_bz2_stream_prime
 .text.unpack_Z_stream
                0x00040dc4      0x524 archival/libunarchive/lib.a(decompress_uncompress.o)
                0x00040dc4                unpack_Z_stream
 .text.rc_read  0x000412e8       0x50 archival/libunarchive/lib.a(decompress_unlzma.o)
 .text.rc_do_normalize
                0x00041338       0x3c archival/libunarchive/lib.a(decompress_unlzma.o)
 .text.rc_is_bit_0_helper
                0x00041374       0x30 archival/libunarchive/lib.a(decompress_unlzma.o)
 .text.rc_update_bit_0
                0x000413a4       0x1c archival/libunarchive/lib.a(decompress_unlzma.o)
 .text.rc_update_bit_1
                0x000413c0       0x34 archival/libunarchive/lib.a(decompress_unlzma.o)
 .text.rc_get_bit
                0x000413f4       0x64 archival/libunarchive/lib.a(decompress_unlzma.o)
 .text.rc_bit_tree_decode
                0x00041458       0x5c archival/libunarchive/lib.a(decompress_unlzma.o)
 .text.unpack_lzma_stream
                0x000414b4      0x8c8 archival/libunarchive/lib.a(decompress_unlzma.o)
                0x000414b4                unpack_lzma_stream
 .text.huft_free
                0x00041d7c       0x28 archival/libunarchive/lib.a(decompress_unzip.o)
 .text.huft_free_all
                0x00041da4       0x28 archival/libunarchive/lib.a(decompress_unzip.o)
 .text.abort_unzip
                0x00041dcc       0x14 archival/libunarchive/lib.a(decompress_unzip.o)
 .text.fill_bitbuffer
                0x00041de0      0x110 archival/libunarchive/lib.a(decompress_unzip.o)
 .text.huft_build
                0x00041ef0      0x610 archival/libunarchive/lib.a(decompress_unzip.o)
 .text.inflate_codes_setup
                0x00042500       0x58 archival/libunarchive/lib.a(decompress_unzip.o)
 .text.calculate_gunzip_crc
                0x00042558       0x58 archival/libunarchive/lib.a(decompress_unzip.o)
 .text.inflate_unzip_internal
                0x000425b0      0xd28 archival/libunarchive/lib.a(decompress_unzip.o)
 .text.inflate_unzip
                0x000432d8       0x78 archival/libunarchive/lib.a(decompress_unzip.o)
                0x000432d8                inflate_unzip
 .text.top_up   0x00043350       0x9c archival/libunarchive/lib.a(decompress_unzip.o)
 .text.buffer_read_le_u32
                0x000433ec       0x3c archival/libunarchive/lib.a(decompress_unzip.o)
 .text.unpack_gz_stream
                0x00043428      0x298 archival/libunarchive/lib.a(decompress_unzip.o)
                0x00043428                unpack_gz_stream
 .text.filter_accept_reject_list
                0x000436c0       0x54 archival/libunarchive/lib.a(filter_accept_reject_list.o)
                0x000436c0                filter_accept_reject_list
 .text.find_list_entry
                0x00043714       0x44 archival/libunarchive/lib.a(find_list_entry.o)
                0x00043714                find_list_entry
 .text.find_list_entry2
                0x00043758       0xcc archival/libunarchive/lib.a(find_list_entry.o)
                0x00043758                find_list_entry2
 .text.getOctal
                0x00043824       0x54 archival/libunarchive/lib.a(get_header_tar.o)
 .text.get_header_tar
                0x00043878      0x6b8 archival/libunarchive/lib.a(get_header_tar.o)
                0x00043878                get_header_tar
 .text.get_header_tar_bz2
                0x00043f30       0x60 archival/libunarchive/lib.a(get_header_tar_bz2.o)
                0x00043f30                get_header_tar_bz2
 .text.get_header_tar_gz
                0x00043f90       0xa0 archival/libunarchive/lib.a(get_header_tar_gz.o)
                0x00043f90                get_header_tar_gz
 .text.get_header_tar_lzma
                0x00044030       0x60 archival/libunarchive/lib.a(get_header_tar_lzma.o)
                0x00044030                get_header_tar_lzma
 .text.header_list
                0x00044090        0x8 archival/libunarchive/lib.a(header_list.o)
                0x00044090                header_list
 .text.header_verbose_list
                0x00044098       0xc0 archival/libunarchive/lib.a(header_verbose_list.o)
                0x00044098                header_verbose_list
 .text.init_handle
                0x00044158       0x70 archival/libunarchive/lib.a(init_handle.o)
                0x00044158                init_handle
 .text.open_transformer
                0x000441c8       0x88 archival/libunarchive/lib.a(open_transformer.o)
                0x000441c8                open_transformer
 .text.seek_by_jump
                0x00044250       0x7c archival/libunarchive/lib.a(seek_by_jump.o)
                0x00044250                seek_by_jump
 .text.seek_by_read
                0x000442cc       0x18 archival/libunarchive/lib.a(seek_by_read.o)
                0x000442cc                seek_by_read
 .text.data_align
                0x000442e4       0x64 archival/libunarchive/lib.a(data_align.o)
                0x000442e4                data_align
 .text.filter_accept_all
                0x00044348       0x14 archival/libunarchive/lib.a(filter_accept_all.o)
                0x00044348                filter_accept_all
 .text.header_skip
                0x0004435c        0x4 archival/libunarchive/lib.a(header_skip.o)
                0x0004435c                header_skip
 .text.reset_main
                0x00044360       0x64 console-tools/lib.a(reset.o)
                0x00044360                reset_main
 .text.bb_cat   0x000443c4       0x78 coreutils/lib.a(cat.o)
                0x000443c4                bb_cat
 .text.cat_main
                0x0004443c       0x44 coreutils/lib.a(cat.o)
                0x0004443c                cat_main
 .text.fileAction
                0x00044480       0xb0 coreutils/lib.a(chmod.o)
 .text.chmod_main
                0x00044530      0x120 coreutils/lib.a(chmod.o)
                0x00044530                chmod_main
 .text.fileAction
                0x00044650       0x54 coreutils/lib.a(chown.o)
 .text.chown_main
                0x000446a4       0xf0 coreutils/lib.a(chown.o)
                0x000446a4                chown_main
 .text.cp_main  0x00044794      0x14c coreutils/lib.a(cp.o)
                0x00044794                cp_main
 .text.dd_output_status
                0x000448e0       0x74 coreutils/lib.a(dd.o)
 .text.full_write_or_warn
                0x00044954       0x48 coreutils/lib.a(dd.o)
 .text.write_and_stats
                0x0004499c       0x70 coreutils/lib.a(dd.o)
 .text.dd_main  0x00044a0c      0x694 coreutils/lib.a(dd.o)
                0x00044a0c                dd_main
 .text.df_main  0x000450a0      0x368 coreutils/lib.a(df.o)
                0x000450a0                df_main
 .text.print    0x00045408       0x4c coreutils/lib.a(du.o)
 .text.du       0x00045454      0x228 coreutils/lib.a(du.o)
 .text.du_main  0x0004567c      0x170 coreutils/lib.a(du.o)
                0x0004567c                du_main
 .text.echo_main
                0x000457ec      0x18c coreutils/lib.a(echo.o)
                0x000457ec                echo_main
 .text.ln_main  0x00045978      0x22c coreutils/lib.a(ln.o)
                0x00045978                ln_main
 .text.my_stat  0x00045ba4       0xbc coreutils/lib.a(ls.o)
 .text.fgcolor  0x00045c60       0x64 coreutils/lib.a(ls.o)
 .text.bgcolor  0x00045cc4       0x44 coreutils/lib.a(ls.o)
 .text.append_char
                0x00045d08       0x74 coreutils/lib.a(ls.o)
 .text.count_dirs
                0x00045d7c       0x80 coreutils/lib.a(ls.o)
 .text.dnalloc  0x00045dfc       0x14 coreutils/lib.a(ls.o)
 .text.dfree    0x00045e10       0x4c coreutils/lib.a(ls.o)
 .text.splitdnarray
                0x00045e5c       0xe0 coreutils/lib.a(ls.o)
 .text.sortcmp  0x00045f3c       0xcc coreutils/lib.a(ls.o)
 .text.dnsort   0x00046008       0x28 coreutils/lib.a(ls.o)
 .text.showfiles
                0x00046030      0x6cc coreutils/lib.a(ls.o)
 .text.showdirs
                0x000466fc      0x288 coreutils/lib.a(ls.o)
 .text.ls_main  0x00046984      0x4b0 coreutils/lib.a(ls.o)
                0x00046984                ls_main
 .text.mkdir_main
                0x00046e34       0xf0 coreutils/lib.a(mkdir.o)
                0x00046e34                mkdir_main
 .text.mknod_main
                0x00046f24      0x114 coreutils/lib.a(mknod.o)
                0x00046f24                mknod_main
 .text.mv_main  0x00047038      0x298 coreutils/lib.a(mv.o)
                0x00047038                mv_main
 .text.nice_main
                0x000472d0      0x118 coreutils/lib.a(nice.o)
                0x000472d0                nice_main
 .text.multiconvert
                0x000473e8       0x88 coreutils/lib.a(printf.o)
 .text.conv_strtoul
                0x00047470       0x1c coreutils/lib.a(printf.o)
 .text.conv_strtol
                0x0004748c       0x1c coreutils/lib.a(printf.o)
 .text.conv_strtod
                0x000474a8       0x68 coreutils/lib.a(printf.o)
 .text.print_direc
                0x00047510      0x224 coreutils/lib.a(printf.o)
 .text.get_width_prec
                0x00047734       0x58 coreutils/lib.a(printf.o)
 .text.printf_main
                0x0004778c      0x378 coreutils/lib.a(printf.o)
                0x0004778c                printf_main
 .text.pwd_main
                0x00047b04       0x48 coreutils/lib.a(pwd.o)
                0x00047b04                pwd_main
 .text.realpath_main
                0x00047b4c       0x70 coreutils/lib.a(realpath.o)
                0x00047b4c                realpath_main
 .text.rm_main  0x00047bbc      0x104 coreutils/lib.a(rm.o)
                0x00047bbc                rm_main
 .text.sleep_main
                0x00047cc0      0x248 coreutils/lib.a(sleep.o)
                0x00047cc0                sleep_main
 .text.syntax   0x00047f08       0x70 coreutils/lib.a(test.o)
 .text.getn     0x00047f78       0x8c coreutils/lib.a(test.o)
 .text.check_operator
                0x00048004       0x90 coreutils/lib.a(test.o)
 .text.binop    0x00048094      0x25c coreutils/lib.a(test.o)
 .text.nexpr    0x000482f0      0x454 coreutils/lib.a(test.o)
 .text.aexpr    0x00048744       0x84 coreutils/lib.a(test.o)
 .text.oexpr    0x000487c8       0x88 coreutils/lib.a(test.o)
 .text.test_main
                0x00048850      0x16c coreutils/lib.a(test.o)
                0x00048850                test_main
 .text.touch_main
                0x000489bc       0xd4 coreutils/lib.a(touch.o)
                0x000489bc                touch_main
 .text.uname_main
                0x00048a90       0xe0 coreutils/lib.a(uname.o)
                0x00048a90                uname_main
 .text.usleep_main
                0x00048b70       0x24 coreutils/lib.a(usleep.o)
                0x00048b70                usleep_main
 .text.cp_mv_stat2
                0x00048b94       0x7c coreutils/libcoreutils/lib.a(cp_mv_stat.o)
                0x00048b94                cp_mv_stat2
 .text.cp_mv_stat
                0x00048c10       0x24 coreutils/libcoreutils/lib.a(cp_mv_stat.o)
                0x00048c10                cp_mv_stat
 .text.getopt_mk_fifo_nod
                0x00048c34       0x68 coreutils/libcoreutils/lib.a(getopt_mk_fifo_nod.o)
                0x00048c34                getopt_mk_fifo_nod
 .text.mktemp_main
                0x00048c9c      0x11c debianutils/lib.a(mktemp.o)
                0x00048c9c                mktemp_main
 .text.pipe_progress_main
                0x00048db8       0xc0 debianutils/lib.a(pipe_progress.o)
                0x00048db8                pipe_progress_main
 .text.bb_alphasort
                0x00048e78       0x38 debianutils/lib.a(run_parts.o)
 .text.act      0x00048eb0       0xf4 debianutils/lib.a(run_parts.o)
 .text.run_parts_main
                0x00048fa4      0x1f4 debianutils/lib.a(run_parts.o)
                0x00048fa4                run_parts_main
 .text.check    0x00049198      0x1c0 debianutils/lib.a(start_stop_daemon.o)
 .text.start_stop_daemon_main
                0x00049358      0x4ec debianutils/lib.a(start_stop_daemon.o)
                0x00049358                start_stop_daemon_main
 .text.which_main
                0x00049844      0x120 debianutils/lib.a(which.o)
                0x00049844                which_main
 .text.zero_out_var
                0x00049964        0xc editors/lib.a(awk.o)
 .text.syntax_error
                0x00049970       0x38 editors/lib.a(awk.o)
 .text.hashidx  0x000499a8       0x2c editors/lib.a(awk.o)
 .text.hash_init
                0x000499d4       0x2c editors/lib.a(awk.o)
 .text.hash_search
                0x00049a00       0x58 editors/lib.a(awk.o)
 .text.hash_find
                0x00049a58      0x138 editors/lib.a(awk.o)
 .text.hash_remove
                0x00049b90       0x98 editors/lib.a(awk.o)
 .text.skip_spaces
                0x00049c28       0x6c editors/lib.a(awk.o)
 .text.nextword
                0x00049c94       0x20 editors/lib.a(awk.o)
 .text.nextchar
                0x00049cb4       0x44 editors/lib.a(awk.o)
 .text.iamarray
                0x00049cf8       0x3c editors/lib.a(awk.o)
 .text.clear_array
                0x00049d34       0x70 editors/lib.a(awk.o)
 .text.clrvar   0x00049da4       0x40 editors/lib.a(awk.o)
 .text.getvar_i
                0x00049de4       0xb8 editors/lib.a(awk.o)
 .text.is_numeric
                0x00049e9c       0x24 editors/lib.a(awk.o)
 .text.istrue   0x00049ec0       0x5c editors/lib.a(awk.o)
 .text.nvalloc  0x00049f1c      0x110 editors/lib.a(awk.o)
 .text.nvfree   0x0004a02c      0x110 editors/lib.a(awk.o)
 .text.next_token
                0x0004a13c      0x4dc editors/lib.a(awk.o)
 .text.rollback_token
                0x0004a618       0x2c editors/lib.a(awk.o)
 .text.new_node
                0x0004a644       0x3c editors/lib.a(awk.o)
 .text.mk_re_node
                0x0004a680       0x48 editors/lib.a(awk.o)
 .text.chain_node
                0x0004a6c8       0x94 editors/lib.a(awk.o)
 .text.mk_splitter
                0x0004a75c       0x60 editors/lib.a(awk.o)
 .text.qrealloc
                0x0004a7bc       0x44 editors/lib.a(awk.o)
 .text.fsrealloc
                0x0004a800       0xf0 editors/lib.a(awk.o)
 .text.nextarg  0x0004a8f0       0x38 editors/lib.a(awk.o)
 .text.fmt_num  0x0004a928      0x13c editors/lib.a(awk.o)
 .text.getvar_s
                0x0004aa64       0x98 editors/lib.a(awk.o)
 .text.handle_special
                0x0004aafc      0x1ec editors/lib.a(awk.o)
 .text.setvar_p
                0x0004ace8       0x24 editors/lib.a(awk.o)
 .text.setvar_s
                0x0004ad0c       0x3c editors/lib.a(awk.o)
 .text.setvar_u
                0x0004ad48       0x20 editors/lib.a(awk.o)
 .text.setari_u
                0x0004ad68       0x5c editors/lib.a(awk.o)
 .text.setvar_i
                0x0004adc4       0x34 editors/lib.a(awk.o)
 .text.parse_expr
                0x0004adf8      0x364 editors/lib.a(awk.o)
 .text.condition
                0x0004b15c       0x18 editors/lib.a(awk.o)
 .text.chain_expr
                0x0004b174       0x48 editors/lib.a(awk.o)
 .text.chain_group
                0x0004b1bc      0x2fc editors/lib.a(awk.o)
 .text.parse_program
                0x0004b4b8      0x1a0 editors/lib.a(awk.o)
 .text.chain_loop
                0x0004b658       0x9c editors/lib.a(awk.o)
 .text.awk_getline
                0x0004b6f4      0x310 editors/lib.a(awk.o)
 .text.incvar   0x0004ba04       0x34 editors/lib.a(awk.o)
 .text.copyvar  0x0004ba38       0x60 editors/lib.a(awk.o)
 .text.awk_split
                0x0004ba98      0x28c editors/lib.a(awk.o)
 .text.split_f0
                0x0004bd24       0xf0 editors/lib.a(awk.o)
 .text.is_assignment
                0x0004be14       0xd8 editors/lib.a(awk.o)
 .text.next_input_file
                0x0004beec      0x140 editors/lib.a(awk.o)
 .text.evaluate
                0x0004c02c     0x1954 editors/lib.a(awk.o)
 .text.as_regex
                0x0004d980       0x9c editors/lib.a(awk.o)
 .text.awk_sub  0x0004da1c      0x2ac editors/lib.a(awk.o)
 .text.awk_printf
                0x0004dcc8      0x23c editors/lib.a(awk.o)
 .text.ptest    0x0004df04       0x30 editors/lib.a(awk.o)
 .text.awk_exit
                0x0004df34       0xc0 editors/lib.a(awk.o)
 .text.awk_main
                0x0004dff4      0x58c editors/lib.a(awk.o)
                0x0004dff4                awk_main
 .text.cleanup_outname
                0x0004e580       0x30 editors/lib.a(sed.o)
 .text.parse_escapes
                0x0004e5b0       0x90 editors/lib.a(sed.o)
 .text.copy_parsing_escapes
                0x0004e640       0x64 editors/lib.a(sed.o)
 .text.index_of_next_unescaped_regexp_delim
                0x0004e6a4       0xc4 editors/lib.a(sed.o)
 .text.parse_regex_delim
                0x0004e768       0x8c editors/lib.a(sed.o)
 .text.get_address
                0x0004e7f4       0xf8 editors/lib.a(sed.o)
 .text.parse_file_cmd
                0x0004e8ec       0x9c editors/lib.a(sed.o)
 .text.add_cmd  0x0004e988      0x624 editors/lib.a(sed.o)
 .text.pipe_putc
                0x0004efac       0x64 editors/lib.a(sed.o)
 .text.append   0x0004f010       0x34 editors/lib.a(sed.o)
 .text.flush_append
                0x0004f044       0x54 editors/lib.a(sed.o)
 .text.add_input_file
                0x0004f098       0x4c editors/lib.a(sed.o)
 .text.get_next_line
                0x0004f0e4       0xdc editors/lib.a(sed.o)
 .text.puts_maybe_newline
                0x0004f1c0       0xc0 editors/lib.a(sed.o)
 .text.process_files
                0x0004f280      0xb68 editors/lib.a(sed.o)
 .text.add_cmd_block
                0x0004fde8       0x9c editors/lib.a(sed.o)
 .text.sed_main
                0x0004fe84      0x34c editors/lib.a(sed.o)
                0x0004fe84                sed_main
 .text.print_line
                0x000501d0       0xf0 findutils/lib.a(grep.o)
 .text.grep_file
                0x000502c0      0x430 findutils/lib.a(grep.o)
 .text.add_grep_list_data
                0x000506f0       0x18 findutils/lib.a(grep.o)
 .text.file_action_grep
                0x00050708       0x88 findutils/lib.a(grep.o)
 .text.grep_main
                0x00050790      0x42c findutils/lib.a(grep.o)
                0x00050790                grep_main
 .text.halt_main
                0x00050bbc      0x148 init/lib.a(halt.o)
                0x00050bbc                halt_main
 .text.waitfor  0x00050d04       0x20 init/lib.a(init.o)
 .text.loop_forever
                0x00050d24        0xc init/lib.a(init.o)
 .text.message  0x00050d30      0x128 init/lib.a(init.o)
 .text.set_sane_term
                0x00050e58       0xac init/lib.a(init.o)
 .text.init_exec
                0x00050f04      0x160 init/lib.a(init.o)
 .text.delete_init_action
                0x00051064       0x64 init/lib.a(init.o)
 .text.init_reboot
                0x000510c8       0x38 init/lib.a(init.o)
 .text.kill_all_processes
                0x00051100       0xb4 init/lib.a(init.o)
 .text.halt_reboot_pwoff
                0x000511b4       0x88 init/lib.a(init.o)
 .text.open_stdio_to_tty
                0x0005123c       0xa4 init/lib.a(init.o)
 .text.run      0x000512e0      0x198 init/lib.a(init.o)
 .text.run_actions
                0x00051478       0xa0 init/lib.a(init.o)
 .text.exec_restart_action
                0x00051518       0x7c init/lib.a(init.o)
 .text.ctrlaltdel_signal
                0x00051594        0x8 init/lib.a(init.o)
 .text.stop_handler
                0x0005159c       0x5c init/lib.a(init.o)
 .text.cont_handler
                0x000515f8       0x28 init/lib.a(init.o)
 .text.new_init_action
                0x00051620       0xbc init/lib.a(init.o)
 .text.parse_inittab
                0x000516dc      0x208 init/lib.a(init.o)
 .text.reload_signal
                0x000518e4       0x8c init/lib.a(init.o)
 .text.init_main
                0x00051970      0x400 init/lib.a(init.o)
                0x00051970                init_main
 .text.mesg_main
                0x00051d70       0xd8 init/lib.a(mesg.o)
                0x00051d70                mesg_main
 .text.bb_ask_confirmation
                0x00051e48       0x54 libbb/lib.a(ask_confirmation.o)
                0x00051e48                bb_ask_confirmation
 .text.askpass_timeout
                0x00051e9c        0x4 libbb/lib.a(bb_askpass.o)
 .text.bb_askpass
                0x00051ea0      0x1d8 libbb/lib.a(bb_askpass.o)
                0x00051ea0                bb_askpass
 .text.bb_do_delay
                0x00052078       0x6c libbb/lib.a(bb_do_delay.o)
                0x00052078                bb_do_delay
 .text.bb_getug
                0x000520e4       0x78 libbb/lib.a(bb_pwd.o)
 .text.bb_getpwuid
                0x0005215c       0x44 libbb/lib.a(bb_pwd.o)
                0x0005215c                bb_getpwuid
 .text.bb_getgrgid
                0x000521a0       0x44 libbb/lib.a(bb_pwd.o)
                0x000521a0                bb_getgrgid
 .text.xgroup2gid
                0x000521e4       0x38 libbb/lib.a(bb_pwd.o)
                0x000521e4                xgroup2gid
 .text.xuname2uid
                0x0005221c       0x38 libbb/lib.a(bb_pwd.o)
                0x0005221c                xuname2uid
 .text.get_ug_id
                0x00052254       0x50 libbb/lib.a(bb_pwd.o)
                0x00052254                get_ug_id
 .text.bb_strtod
                0x000522a4       0xcc libbb/lib.a(bb_strtod.o)
                0x000522a4                bb_strtod
 .text.change_identity
                0x00052370       0x4c libbb/lib.a(change_identity.o)
                0x00052370                change_identity
 .text.chomp    0x000523bc       0x1c libbb/lib.a(chomp.o)
                0x000523bc                chomp
 .text.index_in_strings
                0x000523d8       0x60 libbb/lib.a(compare_string_array.o)
                0x000523d8                index_in_strings
 .text.index_in_substrings
                0x00052438       0x74 libbb/lib.a(compare_string_array.o)
                0x00052438                index_in_substrings
 .text.nth_string
                0x000524ac       0x34 libbb/lib.a(compare_string_array.o)
                0x000524ac                nth_string
 .text.concat_subpath_file
                0x000524e0       0x44 libbb/lib.a(concat_subpath_file.o)
                0x000524e0                concat_subpath_file
 .text.ask_and_unlink
                0x00052524       0xac libbb/lib.a(copy_file.o)
 .text.copy_file
                0x000525d0      0x704 libbb/lib.a(copy_file.o)
                0x000525d0                copy_file
 .text.correct_password
                0x00052cd4       0xfc libbb/lib.a(correct_password.o)
                0x00052cd4                correct_password
 .text.crc32_filltable
                0x00052dd0       0x8c libbb/lib.a(crc32.o)
                0x00052dd0                crc32_filltable
 .text.create_icmp6_socket
                0x00052e5c       0x70 libbb/lib.a(create_icmp6_socket.o)
                0x00052e5c                create_icmp6_socket
 .text.create_icmp_socket
                0x00052ecc       0x70 libbb/lib.a(create_icmp_socket.o)
                0x00052ecc                create_icmp_socket
 .text.i64c     0x00052f3c       0x38 libbb/lib.a(crypt_make_salt.o)
 .text.crypt_make_salt
                0x00052f74       0x7c libbb/lib.a(crypt_make_salt.o)
                0x00052f74                crypt_make_salt
 .text.device_open
                0x00052ff0       0x54 libbb/lib.a(device_open.o)
                0x00052ff0                device_open
 .text.execable_file
                0x00053044       0x58 libbb/lib.a(execable.o)
                0x00053044                execable_file
 .text.find_execable
                0x0005309c       0x74 libbb/lib.a(execable.o)
                0x0005309c                find_execable
 .text.fclose_if_not_stdin
                0x00053110       0x60 libbb/lib.a(fclose_nonstdin.o)
                0x00053110                fclose_if_not_stdin
 .text.fflush_stdout_and_exit
                0x00053170       0x44 libbb/lib.a(fflush_stdout_and_exit.o)
                0x00053170                fflush_stdout_and_exit
 .text.xmalloc_fgets_internal
                0x000531b4       0xbc libbb/lib.a(fgets_str.o)
 .text.xmalloc_fgets_str
                0x00053270        0x8 libbb/lib.a(fgets_str.o)
                0x00053270                xmalloc_fgets_str
 .text.find_mount_point
                0x00053278      0x138 libbb/lib.a(find_mount_point.o)
                0x00053278                find_mount_point
 .text.find_pid_by_name
                0x000533b0       0xe0 libbb/lib.a(find_pid_by_name.o)
                0x000533b0                find_pid_by_name
 .text.bb_get_chunk_with_continuation
                0x00053490       0xd8 libbb/lib.a(get_line_from_file.o)
                0x00053490                bb_get_chunk_with_continuation
 .text.bb_get_chunk_from_file
                0x00053568        0x8 libbb/lib.a(get_line_from_file.o)
                0x00053568                bb_get_chunk_from_file
 .text.xmalloc_fgets
                0x00053570       0x18 libbb/lib.a(get_line_from_file.o)
                0x00053570                xmalloc_fgets
 .text.xmalloc_fgetline
                0x00053588       0x40 libbb/lib.a(get_line_from_file.o)
                0x00053588                xmalloc_fgetline
 .text.getopt32
                0x000535c8      0x6a0 libbb/lib.a(getopt32.o)
                0x000535c8                getopt32
 .text.xgetpty  0x00053c68       0x7c libbb/lib.a(getpty.o)
                0x00053c68                xgetpty
 .text.bb_herror_msg
                0x00053ce4       0x30 libbb/lib.a(herror_msg.o)
                0x00053ce4                bb_herror_msg
 .text.bb_herror_msg_and_die
                0x00053d14       0x28 libbb/lib.a(herror_msg_and_die.o)
                0x00053d14                bb_herror_msg_and_die
 .text.make_human_readable_str
                0x00053d3c      0x13c libbb/lib.a(human_readable.o)
                0x00053d3c                make_human_readable_str
 .text.INET_resolve
                0x00053e78       0xd0 libbb/lib.a(inet_common.o)
                0x00053e78                INET_resolve
 .text.INET_rresolve
                0x00053f48      0x18c libbb/lib.a(inet_common.o)
                0x00053f48                INET_rresolve
 .text.INET6_resolve
                0x000540d4       0xa4 libbb/lib.a(inet_common.o)
                0x000540d4                INET6_resolve
 .text.INET6_rresolve
                0x00054178      0x118 libbb/lib.a(inet_common.o)
                0x00054178                INET6_rresolve
 .text.bb_info_msg
                0x00054290       0x88 libbb/lib.a(info_msg.o)
                0x00054290                bb_info_msg
 .text.is_in_ino_dev_hashtable
                0x00054318       0xb8 libbb/lib.a(inode_hash.o)
                0x00054318                is_in_ino_dev_hashtable
 .text.add_to_ino_dev_hashtable
                0x000543d0       0xb8 libbb/lib.a(inode_hash.o)
                0x000543d0                add_to_ino_dev_hashtable
 .text.is_directory
                0x00054488       0x6c libbb/lib.a(isdirectory.o)
                0x00054488                is_directory
 .text.get_linux_version_code
                0x000544f4       0x80 libbb/lib.a(kernel_version.o)
                0x000544f4                get_linux_version_code
 .text.deinit_S
                0x00054574       0x28 libbb/lib.a(lineedit.o)
 .text.cmdedit_set_out_char
                0x0005459c       0x84 libbb/lib.a(lineedit.o)
 .text.input_end
                0x00054620       0x50 libbb/lib.a(lineedit.o)
 .text.goto_new_line
                0x00054670       0x3c libbb/lib.a(lineedit.o)
 .text.beep     0x000546ac        0x8 libbb/lib.a(lineedit.o)
 .text.input_backward
                0x000546b4       0xcc libbb/lib.a(lineedit.o)
 .text.put_prompt
                0x00054780       0x70 libbb/lib.a(lineedit.o)
 .text.redraw   0x000547f0       0x58 libbb/lib.a(lineedit.o)
 .text.input_delete
                0x00054848       0x64 libbb/lib.a(lineedit.o)
 .text.input_backspace
                0x000548ac       0x3c libbb/lib.a(lineedit.o)
 .text.input_forward
                0x000548e8       0x38 libbb/lib.a(lineedit.o)
 .text.free_tab_completion_data
                0x00054920       0x7c libbb/lib.a(lineedit.o)
 .text.add_quote_for_spec_chars
                0x0005499c       0x80 libbb/lib.a(lineedit.o)
 .text.input_tab
                0x00054a1c     0x1024 libbb/lib.a(lineedit.o)
 .text.get_previous_history
                0x00055a40       0x90 libbb/lib.a(lineedit.o)
 .text.get_next_history
                0x00055ad0       0x64 libbb/lib.a(lineedit.o)
 .text.parse_and_put_prompt
                0x00055b34       0x34 libbb/lib.a(lineedit.o)
 .text.win_changed
                0x00055b68       0xa8 libbb/lib.a(lineedit.o)
 .text.read_line_input
                0x00055c10      0x884 libbb/lib.a(lineedit.o)
                0x00055c10                read_line_input
 .text.new_line_input_t
                0x00056494       0x18 libbb/lib.a(lineedit.o)
                0x00056494                new_line_input_t
 .text.llist_add_to
                0x000564ac       0x28 libbb/lib.a(llist.o)
                0x000564ac                llist_add_to
 .text.llist_add_to_end
                0x000564d4       0x4c libbb/lib.a(llist.o)
                0x000564d4                llist_add_to_end
 .text.llist_pop
                0x00056520       0x34 libbb/lib.a(llist.o)
                0x00056520                llist_pop
 .text.llist_unlink
                0x00056554       0x54 libbb/lib.a(llist.o)
                0x00056554                llist_unlink
 .text.llist_free
                0x000565a8       0x40 libbb/lib.a(llist.o)
                0x000565a8                llist_free
 .text.print_login_issue
                0x000565e8      0x1dc libbb/lib.a(login.o)
                0x000565e8                print_login_issue
 .text.print_login_prompt
                0x000567c4       0x54 libbb/lib.a(login.o)
                0x000567c4                print_login_prompt
 .text.sanitize_env_if_suid
                0x00056818       0x70 libbb/lib.a(login.o)
                0x00056818                sanitize_env_if_suid
 .text.del_loop
                0x00056888       0x3c libbb/lib.a(loop.o)
                0x00056888                del_loop
 .text.set_loop
                0x000568c4      0x280 libbb/lib.a(loop.o)
                0x000568c4                set_loop
 .text.bb_make_directory
                0x00056b44      0x184 libbb/lib.a(make_directory.o)
                0x00056b44                bb_make_directory
 .text.bb_makedev
                0x00056cc8       0x74 libbb/lib.a(makedev.o)
                0x00056cc8                bb_makedev
 .text.match_fstype
                0x00056d3c       0xb0 libbb/lib.a(match_fstype.o)
                0x00056d3c                match_fstype
 .text.bb_mode_string
                0x00056dec       0xc0 libbb/lib.a(mode_string.o)
                0x00056dec                bb_mode_string
 .text.string_checker_helper
                0x00056eac       0x48 libbb/lib.a(obscure.o)
 .text.string_checker
                0x00056ef4       0x84 libbb/lib.a(obscure.o)
 .text.obscure  0x00056f78      0x1c4 libbb/lib.a(obscure.o)
                0x00056f78                obscure
 .text.config_open2
                0x0005713c       0x30 libbb/lib.a(parse_config.o)
                0x0005713c                config_open2
 .text.config_free_data
                0x0005716c       0x1c libbb/lib.a(parse_config.o)
 .text.config_close
                0x00057188       0x24 libbb/lib.a(parse_config.o)
                0x00057188                config_close
 .text.config_read
                0x000571ac      0x1d8 libbb/lib.a(parse_config.o)
                0x000571ac                config_read
 .text.bb_parse_mode
                0x00057384      0x260 libbb/lib.a(parse_mode.o)
                0x00057384                bb_parse_mode
 .text.bb_perror_nomsg_and_die
                0x000575e4        0x8 libbb/lib.a(perror_nomsg_and_die.o)
                0x000575e4                bb_perror_nomsg_and_die
 .text.write_pidfile
                0x000575ec       0xc0 libbb/lib.a(pidfile.o)
                0x000575ec                write_pidfile
 .text.print_flags_separated
                0x000576ac       0x98 libbb/lib.a(print_flags.o)
                0x000576ac                print_flags_separated
 .text.fputc_printable
                0x00057744       0x78 libbb/lib.a(printable.o)
                0x00057744                fputc_printable
 .text.bb_process_escape_sequence
                0x000577bc       0xd0 libbb/lib.a(process_escape_sequence.o)
                0x000577bc                bb_process_escape_sequence
 .text.clear_cache
                0x0005788c       0x20 libbb/lib.a(procps.o)
 .text.clear_username_cache
                0x000578ac       0x34 libbb/lib.a(procps.o)
                0x000578ac                clear_username_cache
 .text.get_cached
                0x000578e0       0xa0 libbb/lib.a(procps.o)
 .text.get_cached_username
                0x00057980       0x34 libbb/lib.a(procps.o)
                0x00057980                get_cached_username
 .text.get_cached_groupname
                0x000579b4       0x34 libbb/lib.a(procps.o)
                0x000579b4                get_cached_groupname
 .text.read_to_buf
                0x000579e8       0x54 libbb/lib.a(procps.o)
 .text.free_procps_scan
                0x00057a3c       0x24 libbb/lib.a(procps.o)
                0x00057a3c                free_procps_scan
 .text.fast_strtoul_10
                0x00057a60       0x30 libbb/lib.a(procps.o)
 .text.skip_fields
                0x00057a90       0x18 libbb/lib.a(procps.o)
 .text.procps_scan
                0x00057aa8      0x338 libbb/lib.a(procps.o)
                0x00057aa8                procps_scan
 .text.read_cmdline
                0x00057de0       0x98 libbb/lib.a(procps.o)
                0x00057de0                read_cmdline
 .text.pw_encrypt
                0x00057e78       0x10 libbb/lib.a(pw_encrypt.o)
                0x00057e78                pw_encrypt
 .text.true_action
                0x00057e88        0x8 libbb/lib.a(recursive_action.o)
 .text.recursive_action
                0x00057e90      0x1d0 libbb/lib.a(recursive_action.o)
                0x00057e90                recursive_action
 .text.remove_file
                0x00058060      0x28c libbb/lib.a(remove_file.o)
                0x00058060                remove_file
 .text.run_shell
                0x000582ec       0xfc libbb/lib.a(run_shell.o)
                0x000582ec                run_shell
 .text.safe_gethostname
                0x000583e8       0x54 libbb/lib.a(safe_gethostname.o)
                0x000583e8                safe_gethostname
 .text.safe_getdomainname
                0x0005843c       0x4c libbb/lib.a(safe_gethostname.o)
                0x0005843c                safe_getdomainname
 .text.safe_strncpy
                0x00058488       0x28 libbb/lib.a(safe_strncpy.o)
                0x00058488                safe_strncpy
 .text.overlapping_strcpy
                0x000584b0       0x24 libbb/lib.a(safe_strncpy.o)
                0x000584b0                overlapping_strcpy
 .text.setup_environment
                0x000584d4      0x11c libbb/lib.a(setup_environment.o)
                0x000584d4                setup_environment
 .text.sigaction_set
                0x000585f0        0x8 libbb/lib.a(signals.o)
                0x000585f0                sigaction_set
 .text.sigprocmask_allsigs
                0x000585f8       0x30 libbb/lib.a(signals.o)
                0x000585f8                sigprocmask_allsigs
 .text.bb_signals
                0x00058628       0x40 libbb/lib.a(signals.o)
                0x00058628                bb_signals
 .text.signal_SA_RESTART_empty_mask
                0x00058668       0x44 libbb/lib.a(signals.o)
                0x00058668                signal_SA_RESTART_empty_mask
 .text.signal_no_SA_RESTART_empty_mask
                0x000586ac       0x3c libbb/lib.a(signals.o)
                0x000586ac                signal_no_SA_RESTART_empty_mask
 .text.bb_simplify_path
                0x000586e8       0xe8 libbb/lib.a(simplify_path.o)
                0x000586e8                bb_simplify_path
 .text.str_tolower
                0x000587d0       0x3c libbb/lib.a(str_tolower.o)
                0x000587d0                str_tolower
 .text.monotonic_us
                0x0005880c       0x40 libbb/lib.a(time.o)
                0x0005880c                monotonic_us
 .text.monotonic_sec
                0x0005884c        0x8 libbb/lib.a(time.o)
                0x0005884c                monotonic_sec
 .text.get_signum
                0x00058854       0xa8 libbb/lib.a(u_signal_names.o)
                0x00058854                get_signum
 .text.get_signame
                0x000588fc       0x44 libbb/lib.a(u_signal_names.o)
                0x000588fc                get_signame
 .text.print_signames
                0x00058940       0x44 libbb/lib.a(u_signal_names.o)
                0x00058940                print_signames
 .text.update_passwd
                0x00058984      0x358 libbb/lib.a(update_passwd.o)
                0x00058984                update_passwd
 .text.bb_uuencode
                0x00058cdc       0x9c libbb/lib.a(uuencode.o)
                0x00058cdc                bb_uuencode
 .text.spawn    0x00058d78       0x88 libbb/lib.a(vfork_daemon_rexec.o)
                0x00058d78                spawn
 .text.safe_waitpid
                0x00058e00       0x54 libbb/lib.a(vfork_daemon_rexec.o)
                0x00058e00                safe_waitpid
 .text.wait_any_nohang
                0x00058e54       0x10 libbb/lib.a(vfork_daemon_rexec.o)
                0x00058e54                wait_any_nohang
 .text.wait4pid
                0x00058e64       0x64 libbb/lib.a(vfork_daemon_rexec.o)
                0x00058e64                wait4pid
 .text.forkexit_or_rexec
                0x00058ec8       0x34 libbb/lib.a(vfork_daemon_rexec.o)
                0x00058ec8                forkexit_or_rexec
 .text.bb_daemonize_or_rexec
                0x00058efc       0xe8 libbb/lib.a(vfork_daemon_rexec.o)
                0x00058efc                bb_daemonize_or_rexec
 .text.bb_sanitize_stdio
                0x00058fe4        0x8 libbb/lib.a(vfork_daemon_rexec.o)
                0x00058fe4                bb_sanitize_stdio
 .text.fopen_or_warn_stdin
                0x00058fec       0x68 libbb/lib.a(wfopen_input.o)
                0x00058fec                fopen_or_warn_stdin
 .text.xfopen_stdin
                0x00059054       0x14 libbb/lib.a(wfopen_input.o)
                0x00059054                xfopen_stdin
 .text.open_or_warn_stdin
                0x00059068       0x50 libbb/lib.a(wfopen_input.o)
                0x00059068                open_or_warn_stdin
 .text.xstrtoull_range_sfx
                0x000590b8      0x1b8 libbb/lib.a(xatonum.o)
                0x000590b8                xstrtoull_range_sfx
 .text.xatoull_sfx
                0x00059270       0x30 libbb/lib.a(xatonum.o)
                0x00059270                xatoull_sfx
 .text.xstrtoul_range_sfx
                0x000592a0      0x158 libbb/lib.a(xatonum.o)
                0x000592a0                xstrtoul_range_sfx
 .text.xstrtol_range_sfx
                0x000593f8       0xb0 libbb/lib.a(xatonum.o)
                0x000593f8                xstrtol_range_sfx
 .text.xatol    0x000594a8       0x28 libbb/lib.a(xatonum.o)
                0x000594a8                xatol
 .text.xatol_range
                0x000594d0       0x28 libbb/lib.a(xatonum.o)
                0x000594d0                xatol_range
 .text.xatoul_sfx
                0x000594f8       0x24 libbb/lib.a(xatonum.o)
                0x000594f8                xatoul_sfx
 .text.xatoul   0x0005951c        0x8 libbb/lib.a(xatonum.o)
                0x0005951c                xatoul
 .text.xatoul_range
                0x00059524       0x28 libbb/lib.a(xatonum.o)
                0x00059524                xatoul_range
 .text.xatoul_range_sfx
                0x0005954c       0x28 libbb/lib.a(xatonum.o)
                0x0005954c                xatoul_range_sfx
 .text.xstrtoul
                0x00059574       0x24 libbb/lib.a(xatonum.o)
                0x00059574                xstrtoul
 .text.xstrtoul_range
                0x00059598       0x1c libbb/lib.a(xatonum.o)
                0x00059598                xstrtoul_range
 .text.xatoi_u  0x000595b4        0xc libbb/lib.a(xatonum.o)
                0x000595b4                xatoi_u
 .text.xatou16  0x000595c0       0x20 libbb/lib.a(xatonum.o)
                0x000595c0                xatou16
 .text.setsockopt_reuseaddr
                0x000595e0       0x3c libbb/lib.a(xconnect.o)
                0x000595e0                setsockopt_reuseaddr
 .text.setsockopt_broadcast
                0x0005961c       0x3c libbb/lib.a(xconnect.o)
                0x0005961c                setsockopt_broadcast
 .text.xconnect
                0x00059658       0x5c libbb/lib.a(xconnect.o)
                0x00059658                xconnect
 .text.bb_lookup_port
                0x000596b4       0xa8 libbb/lib.a(xconnect.o)
                0x000596b4                bb_lookup_port
 .text.set_nport
                0x0005975c       0x1c libbb/lib.a(xconnect.o)
                0x0005975c                set_nport
 .text.str2sockaddr
                0x00059778      0x230 libbb/lib.a(xconnect.o)
 .text.xhost_and_af2sockaddr
                0x000599a8       0x10 libbb/lib.a(xconnect.o)
                0x000599a8                xhost_and_af2sockaddr
 .text.host2sockaddr
                0x000599b8        0xc libbb/lib.a(xconnect.o)
                0x000599b8                host2sockaddr
 .text.xhost2sockaddr
                0x000599c4        0xc libbb/lib.a(xconnect.o)
                0x000599c4                xhost2sockaddr
 .text.xdotted2sockaddr
                0x000599d0        0xc libbb/lib.a(xconnect.o)
                0x000599d0                xdotted2sockaddr
 .text.xsocket_type
                0x000599dc       0x74 libbb/lib.a(xconnect.o)
                0x000599dc                xsocket_type
 .text.create_and_bind_or_die
                0x00059a50       0x9c libbb/lib.a(xconnect.o)
 .text.create_and_bind_stream_or_die
                0x00059aec        0x8 libbb/lib.a(xconnect.o)
                0x00059aec                create_and_bind_stream_or_die
 .text.create_and_connect_stream_or_die
                0x00059af4       0x44 libbb/lib.a(xconnect.o)
                0x00059af4                create_and_connect_stream_or_die
 .text.xconnect_stream
                0x00059b38       0x30 libbb/lib.a(xconnect.o)
                0x00059b38                xconnect_stream
 .text.sockaddr2str
                0x00059b68       0xbc libbb/lib.a(xconnect.o)
 .text.xmalloc_sockaddr2host_noport
                0x00059c24        0x8 libbb/lib.a(xconnect.o)
                0x00059c24                xmalloc_sockaddr2host_noport
 .text.xmalloc_sockaddr2dotted
                0x00059c2c        0x8 libbb/lib.a(xconnect.o)
                0x00059c2c                xmalloc_sockaddr2dotted
 .text.xmalloc_sockaddr2dotted_noport
                0x00059c34        0x8 libbb/lib.a(xconnect.o)
                0x00059c34                xmalloc_sockaddr2dotted_noport
 .text.xrealloc_getcwd_or_warn
                0x00059c3c       0x94 libbb/lib.a(xgetcwd.o)
                0x00059c3c                xrealloc_getcwd_or_warn
 .text.xgethostbyname
                0x00059cd0       0x34 libbb/lib.a(xgethostbyname.o)
                0x00059cd0                xgethostbyname
 .text.xrealloc_vector_helper
                0x00059d04       0x54 libbb/lib.a(xrealloc_vector.o)
                0x00059d04                xrealloc_vector_helper
 .text.regcomp_or_errmsg
                0x00059d58       0x50 libbb/lib.a(xregcomp.o)
                0x00059d58                regcomp_or_errmsg
 .text.xregcomp
                0x00059da8       0x34 libbb/lib.a(xregcomp.o)
                0x00059da8                xregcomp
 .text.bb_pstrcmp
                0x00059ddc        0xc libbb/lib.a(bb_qsort.o)
                0x00059ddc                bb_pstrcmp
 .text.qsort_string_vector
                0x00059de8       0x28 libbb/lib.a(bb_qsort.o)
                0x00059de8                qsort_string_vector
 .text.get_uidgid
                0x00059e10      0x13c libpwdgrp/lib.a(uidgid_get.o)
                0x00059e10                get_uidgid
 .text.xget_uidgid
                0x00059f4c       0x38 libpwdgrp/lib.a(uidgid_get.o)
                0x00059f4c                xget_uidgid
 .text.parse_chown_usergroup_or_die
                0x00059f84       0xac libpwdgrp/lib.a(uidgid_get.o)
                0x00059f84                parse_chown_usergroup_or_die
 .text          0x0005a030       0xf8 /home/devicenull/ipmi/SDK/ToolChain/Host/HERMON/gcc-3.4.4-glibc-2.3.5-armv4/arm-linux/bin/../lib/gcc/arm-linux/3.4.4/libgcc.a(_udivsi3.oS)
                0x0005a030                __udivsi3
 .text          0x0005a128      0x128 /home/devicenull/ipmi/SDK/ToolChain/Host/HERMON/gcc-3.4.4-glibc-2.3.5-armv4/arm-linux/bin/../lib/gcc/arm-linux/3.4.4/libgcc.a(_divsi3.oS)
                0x0005a128                __divsi3
 .text          0x0005a250       0xcc /home/devicenull/ipmi/SDK/ToolChain/Host/HERMON/gcc-3.4.4-glibc-2.3.5-armv4/arm-linux/bin/../lib/gcc/arm-linux/3.4.4/libgcc.a(_umodsi3.oS)
                0x0005a250                __umodsi3
 .text          0x0005a31c       0xe4 /home/devicenull/ipmi/SDK/ToolChain/Host/HERMON/gcc-3.4.4-glibc-2.3.5-armv4/arm-linux/bin/../lib/gcc/arm-linux/3.4.4/libgcc.a(_modsi3.oS)
                0x0005a31c                __modsi3
 .text          0x0005a400       0x1c /home/devicenull/ipmi/SDK/ToolChain/Host/HERMON/gcc-3.4.4-glibc-2.3.5-armv4/arm-linux/bin/../lib/gcc/arm-linux/3.4.4/libgcc.a(_dvmd_lnx.oS)
                0x0005a400                __div0
 .text          0x0005a41c      0x388 /home/devicenull/ipmi/SDK/ToolChain/Host/HERMON/gcc-3.4.4-glibc-2.3.5-armv4/arm-linux/bin/../lib/gcc/arm-linux/3.4.4/libgcc.a(_addsubdf3.oS)
                0x0005a72c                __floatsidf
                0x0005a758                __extendsfdf2
                0x0005a420                __adddf3
                0x0005a704                __floatunsidf
                0x0005a41c                __subdf3
 .text          0x0005a7a4      0x4c4 /home/devicenull/ipmi/SDK/ToolChain/Host/HERMON/gcc-3.4.4-glibc-2.3.5-armv4/arm-linux/bin/../lib/gcc/arm-linux/3.4.4/libgcc.a(_muldivdf3.oS)
                0x0005a9fc                __divdf3
                0x0005a7a4                __muldf3
 .text          0x0005ac68       0xa4 /home/devicenull/ipmi/SDK/ToolChain/Host/HERMON/gcc-3.4.4-glibc-2.3.5-armv4/arm-linux/bin/../lib/gcc/arm-linux/3.4.4/libgcc.a(_cmpdf2.oS)
                0x0005ac78                __cmpdf2
                0x0005ac78                __eqdf2
                0x0005ac68                __gtdf2
                0x0005ac70                __ltdf2
                0x0005ac70                __ledf2
                0x0005ac78                __nedf2
                0x0005ac68                __gedf2
 .text          0x0005ad0c       0x80 /home/devicenull/ipmi/SDK/ToolChain/Host/HERMON/gcc-3.4.4-glibc-2.3.5-armv4/arm-linux/bin/../lib/gcc/arm-linux/3.4.4/libgcc.a(_fixdfsi.oS)
                0x0005ad0c                __fixdfsi
 .text          0x0005ad8c       0x74 /home/devicenull/ipmi/SDK/ToolChain/Host/HERMON/gcc-3.4.4-glibc-2.3.5-armv4/arm-linux/bin/../lib/gcc/arm-linux/3.4.4/libgcc.a(_fixunsdfsi.oS)
                0x0005ad8c                __fixunsdfsi
 .text          0x0005ae00       0x50 /home/devicenull/ipmi/SDK/ToolChain/Host/HERMON/gcc-3.4.4-glibc-2.3.5-armv4/arm-linux/bin/../lib/gcc/arm-linux/3.4.4/libgcc.a(_lshrdi3.oS)
                0x0005ae00                __lshrdi3
 .text          0x0005ae50       0x50 /home/devicenull/ipmi/SDK/ToolChain/Host/HERMON/gcc-3.4.4-glibc-2.3.5-armv4/arm-linux/bin/../lib/gcc/arm-linux/3.4.4/libgcc.a(_ashldi3.oS)
                0x0005ae50                __ashldi3
 .text          0x0005aea0       0x50 /home/devicenull/ipmi/SDK/ToolChain/Host/HERMON/gcc-3.4.4-glibc-2.3.5-armv4/arm-linux/bin/../lib/gcc/arm-linux/3.4.4/libgcc.a(_ashrdi3.oS)
                0x0005aea0                __ashrdi3
 .text          0x0005aef0       0x30 /home/devicenull/ipmi/SDK/ToolChain/Host/HERMON/gcc-3.4.4-glibc-2.3.5-armv4/arm-linux/bin/../lib/gcc/arm-linux/3.4.4/libgcc.a(_cmpdi2.oS)
                0x0005aef0                __cmpdi2
 .text          0x0005af20      0x5b4 /home/devicenull/ipmi/SDK/ToolChain/Host/HERMON/gcc-3.4.4-glibc-2.3.5-armv4/arm-linux/bin/../lib/gcc/arm-linux/3.4.4/libgcc.a(_divdi3.oS)
                0x0005af20                __divdi3
 .text          0x0005b4d4      0x604 /home/devicenull/ipmi/SDK/ToolChain/Host/HERMON/gcc-3.4.4-glibc-2.3.5-armv4/arm-linux/bin/../lib/gcc/arm-linux/3.4.4/libgcc.a(_moddi3.oS)
                0x0005b4d4                __moddi3
 .text          0x0005bad8      0x544 /home/devicenull/ipmi/SDK/ToolChain/Host/HERMON/gcc-3.4.4-glibc-2.3.5-armv4/arm-linux/bin/../lib/gcc/arm-linux/3.4.4/libgcc.a(_udivdi3.oS)
                0x0005bad8                __udivdi3
 .text          0x0005c01c      0x5a8 /home/devicenull/ipmi/SDK/ToolChain/Host/HERMON/gcc-3.4.4-glibc-2.3.5-armv4/arm-linux/bin/../lib/gcc/arm-linux/3.4.4/libgcc.a(_umoddi3.oS)
                0x0005c01c                __umoddi3
 .text          0x0005c5c4       0xc4 /home/devicenull/ipmi/SDK/ToolChain/Host/HERMON/gcc-3.4.4-glibc-2.3.5-armv4/arm-linux/bin/../lib/gcc/arm-linux/3.4.4/../../../../arm-linux/lib/libc_nonshared.a(elf-init.oST)
                0x0005c628                __libc_csu_fini
                0x0005c5c4                __libc_csu_init
 .text          0x0005c688       0x34 /home/devicenull/ipmi/SDK/ToolChain/Host/HERMON/gcc-3.4.4-glibc-2.3.5-armv4/arm-linux/bin/../lib/gcc/arm-linux/3.4.4/../../../../arm-linux/lib/libc_nonshared.a(atexit.oST)
                0x0005c688                atexit
 .text          0x0005c6bc       0x1c /home/devicenull/ipmi/SDK/ToolChain/Host/HERMON/gcc-3.4.4-glibc-2.3.5-armv4/arm-linux/bin/../lib/gcc/arm-linux/3.4.4/../../../../arm-linux/lib/libc_nonshared.a(stat64.oST)
                0x0005c6bc                stat64
 .text          0x0005c6d8       0x1c /home/devicenull/ipmi/SDK/ToolChain/Host/HERMON/gcc-3.4.4-glibc-2.3.5-armv4/arm-linux/bin/../lib/gcc/arm-linux/3.4.4/../../../../arm-linux/lib/libc_nonshared.a(lstat64.oST)
                0x0005c6d8                lstat64
 .text          0x0005c6f4       0x40 /home/devicenull/ipmi/SDK/ToolChain/Host/HERMON/gcc-3.4.4-glibc-2.3.5-armv4/arm-linux/bin/../lib/gcc/arm-linux/3.4.4/crtend.o
 *(SORT(.text.*personality*))
 *(SORT(.gnu.warning))
 *(SORT(.glue_7t))
 *(SORT(.glue_7))

.fini           0x0005c734        0xc
 *(SORT(.fini))
 .fini          0x0005c734        0x4 /home/devicenull/ipmi/SDK/ToolChain/Host/HERMON/gcc-3.4.4-glibc-2.3.5-armv4/arm-linux/bin/../lib/gcc/arm-linux/3.4.4/../../../../arm-linux/lib/crti.o
                0x0005c734                _fini
 .fini          0x0005c738        0x4 /home/devicenull/ipmi/SDK/ToolChain/Host/HERMON/gcc-3.4.4-glibc-2.3.5-armv4/arm-linux/bin/../lib/gcc/arm-linux/3.4.4/crtbegin.o
 .fini          0x0005c73c        0x4 /home/devicenull/ipmi/SDK/ToolChain/Host/HERMON/gcc-3.4.4-glibc-2.3.5-armv4/arm-linux/bin/../lib/gcc/arm-linux/3.4.4/../../../../arm-linux/lib/crtn.o
                0x0005c740                PROVIDE (__etext, .)
                0x0005c740                PROVIDE (_etext, .)
                0x0005c740                PROVIDE (etext, .)

.rodata         0x0005c740    0x113be
 *(SORT(.rodata) .rodata.* .gnu.linkonce.r.*)
 .rodata        0x0005c740        0x4 /home/devicenull/ipmi/SDK/ToolChain/Host/HERMON/gcc-3.4.4-glibc-2.3.5-armv4/arm-linux/bin/../lib/gcc/arm-linux/3.4.4/../../../../arm-linux/lib/crt1.o
                0x0005c740                _IO_stdin_used
 .rodata        0x0005c744       0x14 networking/lib.a(ifconfig.o)
 .rodata        0x0005c758       0x28 networking/lib.a(ifupdown.o)
 .rodata        0x0005c780       0x90 shell/lib.a(ash.o)
 .rodata        0x0005c810       0x3c coreutils/lib.a(ls.o)
 .rodata.applet_install_loc
                0x0005c84c       0x2c libbb/lib.a(appletlib.o)
                0x0005c84c                applet_install_loc
 .rodata.applet_nameofs
                0x0005c878       0xae libbb/lib.a(appletlib.o)
                0x0005c878                applet_nameofs
 .rodata.applet_names
                0x0005c926      0x221 libbb/lib.a(appletlib.o)
                0x0005c926                applet_names
 *fill*         0x0005cb47        0x1 00
 .rodata.mode_mask
                0x0005cb48       0x18 libbb/lib.a(appletlib.o)
 .rodata.config_file
                0x0005cb60       0x12 libbb/lib.a(appletlib.o)
 .rodata.packed_usage
                0x0005cb72     0x242b libbb/lib.a(appletlib.o)
 *fill*         0x0005ef9d        0x3 00
 .rodata.str1.4
                0x0005efa0      0x35c libbb/lib.a(appletlib.o)
                                0x370 (size before relaxing)
 .rodata.usr_bin.1
                0x0005f2fc        0x9 libbb/lib.a(appletlib.o)
 .rodata.usr_sbin.2
                0x0005f305        0xa libbb/lib.a(appletlib.o)
 .rodata.mode_chars.0
                0x0005f30f        0xf libbb/lib.a(appletlib.o)
 *fill*         0x0005f31e        0x2 00
 .rodata.str1.4
                0x0005f320        0x7 libbb/lib.a(concat_path_file.o)
                                 0x10 (size before relaxing)
 *fill*         0x0005f327        0x1 00
 .rodata.const_int_0
                0x0005f328        0x4 libbb/lib.a(messages.o)
                0x0005f328                const_int_0
 .rodata.const_int_1
                0x0005f32c        0x4 libbb/lib.a(messages.o)
                0x0005f32c                const_int_1
 .rodata.bb_PATH_root_path
                0x0005f330       0x23 libbb/lib.a(messages.o)
                0x0005f330                bb_PATH_root_path
 .rodata.bb_default_login_shell
                0x0005f353        0x9 libbb/lib.a(messages.o)
                0x0005f353                bb_default_login_shell
 .rodata.bb_busybox_exec_path
                0x0005f35c        0xf libbb/lib.a(messages.o)
                0x0005f35c                bb_busybox_exec_path
 .rodata.bb_dev_null
                0x0005f36b        0xa libbb/lib.a(messages.o)
                0x0005f36b                bb_dev_null
 .rodata.bb_path_motd_file
                0x0005f375        0xa libbb/lib.a(messages.o)
                0x0005f375                bb_path_motd_file
 .rodata.bb_path_shadow_file
                0x0005f37f        0xc libbb/lib.a(messages.o)
                0x0005f37f                bb_path_shadow_file
 .rodata.bb_path_passwd_file
                0x0005f38b        0xc libbb/lib.a(messages.o)
                0x0005f38b                bb_path_passwd_file
 .rodata.bb_str_default
                0x0005f397        0x8 libbb/lib.a(messages.o)
                0x0005f397                bb_str_default
 .rodata.bb_msg_standard_output
                0x0005f39f       0x10 libbb/lib.a(messages.o)
                0x0005f39f                bb_msg_standard_output
 .rodata.bb_msg_standard_input
                0x0005f3af        0xf libbb/lib.a(messages.o)
                0x0005f3af                bb_msg_standard_input
 .rodata.bb_msg_invalid_arg
                0x0005f3be       0x1e libbb/lib.a(messages.o)
                0x0005f3be                bb_msg_invalid_arg
 .rodata.bb_msg_requires_arg
                0x0005f3dc       0x18 libbb/lib.a(messages.o)
                0x0005f3dc                bb_msg_requires_arg
 .rodata.bb_msg_perm_denied_are_you_root
                0x0005f3f4       0x23 libbb/lib.a(messages.o)
                0x0005f3f4                bb_msg_perm_denied_are_you_root
 .rodata.bb_msg_can_not_create_raw_socket
                0x0005f417       0x18 libbb/lib.a(messages.o)
                0x0005f417                bb_msg_can_not_create_raw_socket
 .rodata.bb_msg_read_error
                0x0005f42f        0xb libbb/lib.a(messages.o)
                0x0005f42f                bb_msg_read_error
 .rodata.bb_msg_write_error
                0x0005f43a        0xc libbb/lib.a(messages.o)
                0x0005f43a                bb_msg_write_error
 .rodata.bb_msg_memory_exhausted
                0x0005f446       0x11 libbb/lib.a(messages.o)
                0x0005f446                bb_msg_memory_exhausted
 .rodata.bb_banner
                0x0005f457       0x2a libbb/lib.a(messages.o)
                0x0005f457                bb_banner
 .rodata.str1.4
                0x0005f481        0x0 libbb/lib.a(perror_msg.o)
                                  0x4 (size before relaxing)
 .rodata.str1.4
                0x0005f481        0x0 libbb/lib.a(perror_msg_and_die.o)
                                  0x4 (size before relaxing)
 .rodata.str1.4
                0x0005f481        0x0 libbb/lib.a(verror_msg.o)
                                  0xc (size before relaxing)
 .rodata.str1.4
                0x0005f481        0x0 libbb/lib.a(wfopen.o)
                                  0x8 (size before relaxing)
 *fill*         0x0005f481        0x3 00
 .rodata.str1.4
                0x0005f484       0x28 libbb/lib.a(xfuncs.o)
 .rodata.str1.4
                0x0005f4ac      0x128 libbb/lib.a(xfuncs_printf.o)
                                0x130 (size before relaxing)
 .rodata.str1.4
                0x0005f5d4       0x26 libbb/lib.a(xreadlink.o)
                                 0x28 (size before relaxing)
 *fill*         0x0005f5fa        0x2 00
 .rodata.str1.4
                0x0005f5fc        0xb libbb/lib.a(copyfd.o)
                                  0xc (size before relaxing)
 *fill*         0x0005f607        0x1 00
 .rodata.str1.4
                0x0005f608       0x4d libbb/lib.a(read.o)
                                 0x5c (size before relaxing)
 *fill*         0x0005f655        0x3 00
 .rodata.str1.4
                0x0005f658        0x5 libbb/lib.a(safe_poll.o)
                                  0x8 (size before relaxing)
 *fill*         0x0005f65d        0x3 00
 .rodata.str1.4
                0x0005f660       0xb0 loginutils/lib.a(login.o)
 .rodata.str1.4
                0x0005f710      0x1a8 loginutils/lib.a(passwd.o)
                                0x1ac (size before relaxing)
 .rodata.str1.4
                0x0005f8b8     0x59b2 miscutils/lib.a(bbconfig.o)
                               0x59b4 (size before relaxing)
 *fill*         0x0006526a        0x2 00
 .rodata.str1.4
                0x0006526c       0x5e miscutils/lib.a(mountpoint.o)
                                 0x64 (size before relaxing)
 .rodata.opcode_value
                0x000652ca       0x44 miscutils/lib.a(mt.o)
 .rodata.opcode_name
                0x0006530e       0xd5 miscutils/lib.a(mt.o)
 *fill*         0x000653e3        0x1 00
 .rodata.str1.4
                0x000653e4       0x31 miscutils/lib.a(mt.o)
                                 0x3c (size before relaxing)
 *fill*         0x00065415        0x3 00
 .rodata.str1.4
                0x00065418       0xd7 miscutils/lib.a(rx.o)
                                 0xd8 (size before relaxing)
 *fill*         0x000654ef        0x1 00
 .rodata.str1.4
                0x000654f0      0x934 modutils/lib.a(insmod.o)
                                0x948 (size before relaxing)
 .rodata.tainted_file.1
                0x00065e24       0x19 modutils/lib.a(insmod.o)
 .rodata.symprefix.4
                0x00065e3d        0xa modutils/lib.a(insmod.o)
 .rodata.section_names.5
                0x00065e47       0x28 modutils/lib.a(insmod.o)
 *fill*         0x00065e6f        0x1 00
 .rodata.str1.4
                0x00065e70       0x9f modutils/lib.a(lsmod.o)
                                 0xb0 (size before relaxing)
 *fill*         0x00065f0f        0x1 00
 .rodata.str1.4
                0x00065f10        0xa modutils/lib.a(rmmod.o)
                                  0xc (size before relaxing)
 *fill*         0x00065f1a        0x2 00
 .rodata.str1.4
                0x00065f1c      0x24a networking/lib.a(arp.o)
                                0x25c (size before relaxing)
 .rodata.options
                0x00066166       0x2e networking/lib.a(arp.o)
 .rodata.arp_masks.0
                0x00066194        0xc networking/lib.a(arp.o)
 .rodata.arp_labels.1
                0x000661a0       0x10 networking/lib.a(arp.o)
 .rodata.str1.4
                0x000661b0      0x1da networking/lib.a(arping.o)
                                0x200 (size before relaxing)
 *fill*         0x0006638a        0x2 00
 .rodata.str1.4
                0x0006638c       0x17 networking/lib.a(hostname.o)
                                 0x1c (size before relaxing)
 *fill*         0x000663a3        0x1 00
 .rodata.str1.4
                0x000663a4      0x169 networking/lib.a(ifconfig.o)
                                0x1a4 (size before relaxing)
 *fill*         0x0006650d        0x3 00
 .rodata.str1.4
                0x00066510      0x1c7 networking/lib.a(ifenslave.o)
                                0x1c8 (size before relaxing)
 *fill*         0x000666d7        0x1 00
 .rodata.ifra.1
                0x000666d8       0x10 networking/lib.a(ifenslave.o)
 .rodata.ifenslave_longopts.0
                0x000666e8       0x22 networking/lib.a(ifenslave.o)
 *fill*         0x0006670a        0x2 00
 .rodata.str1.4
                0x0006670c      0x7a2 networking/lib.a(ifupdown.o)
                                0x7f8 (size before relaxing)
 *fill*         0x00066eae        0x2 00
 .rodata.str1.4
                0x00066eb0      0x4b1 networking/lib.a(interface.o)
                                0x4e4 (size before relaxing)
 .rodata.TRext  0x00067361        0xf networking/lib.a(interface.o)
 .rodata.ife_print_flags_strs.1
                0x00067370       0x6a networking/lib.a(interface.o)
 .rodata.ife_print_flags_mask.2
                0x000673da       0x1a networking/lib.a(interface.o)
 .rodata.keywords.0
                0x000673f4       0x14 networking/lib.a(ip.o)
 .rodata.str1.4
                0x00067408      0x37f networking/lib.a(netstat.o)
                                0x394 (size before relaxing)
 *fill*         0x00067787        0x1 00
 .rodata.str1.4
                0x00067788      0x2eb networking/lib.a(ping.o)
                                0x304 (size before relaxing)
 .rodata.tbl_verb
                0x00067a73       0x15 networking/lib.a(route.o)
 .rodata.flagvals
                0x00067a88       0x20 networking/lib.a(route.o)
 .rodata.flagchars
                0x00067aa8        0x9 networking/lib.a(route.o)
 *fill*         0x00067ab1        0x3 00
 .rodata.flags_ipvx
                0x00067ab4       0x10 networking/lib.a(route.o)
 .rodata.tbl_ipvx
                0x00067ac4       0x68 networking/lib.a(route.o)
 .rodata.tbl_hash_net_host
                0x00067b2c        0xf networking/lib.a(route.o)
 *fill*         0x00067b3b        0x1 00
 .rodata.str1.4
                0x00067b3c      0x27a networking/lib.a(route.o)
                                0x29c (size before relaxing)
 *fill*         0x00067db6        0x2 00
 .rodata.str1.4
                0x00067db8      0x297 networking/lib.a(sendmail.o)
                                0x2b0 (size before relaxing)
 *fill*         0x0006804f        0x1 00
 .rodata.str1.4
                0x00068050       0x34 networking/lib.a(telnetd.o)
                                 0x3c (size before relaxing)
 .rodata.iacs_to_send.0
                0x00068084        0xf networking/lib.a(telnetd.o)
 .rodata.errcode_str.0
                0x00068093       0x79 networking/lib.a(tftp.o)
 .rodata.str1.4
                0x0006810c       0x52 networking/lib.a(tftp.o)
                                 0x64 (size before relaxing)
 *fill*         0x0006815e        0x2 00
 .rodata.str1.4
                0x00068160      0x407 networking/lib.a(traceroute.o)
                                0x4a4 (size before relaxing)
 .rodata.name_types
                0x00068567       0x4c networking/lib.a(vconfig.o)
 .rodata.cmds   0x000685b3       0x50 networking/lib.a(vconfig.o)
 .rodata.conf_file_name
                0x00068603       0x16 networking/lib.a(vconfig.o)
 *fill*         0x00068619        0x3 00
 .rodata.str1.4
                0x0006861c       0x13 networking/lib.a(vconfig.o)
                                 0x14 (size before relaxing)
 *fill*         0x0006862f        0x1 00
 .rodata.str1.4
                0x00068630      0x312 networking/lib.a(wget.o)
                                0x334 (size before relaxing)
 .rodata.keywords.0
                0x00068942       0x33 networking/lib.a(wget.o)
 .rodata.ip_common_commands.0
                0x00068975       0x16 networking/libiproute/lib.a(ip_parse_common_args.o)
 .rodata.af_numbers.1
                0x0006898b        0x3 networking/libiproute/lib.a(ip_parse_common_args.o)
 .rodata.families.2
                0x0006898e       0x11 networking/libiproute/lib.a(ip_parse_common_args.o)
 *fill*         0x0006899f        0x1 00
 .rodata.str1.4
                0x000689a0       0x10 networking/libiproute/lib.a(ip_parse_common_args.o)
 .rodata.str1.4
                0x000689b0      0x27f networking/libiproute/lib.a(ipaddress.o)
                                0x2a4 (size before relaxing)
 .rodata.option.2
                0x00068c2f       0x17 networking/libiproute/lib.a(ipaddress.o)
 *fill*         0x00068c46        0x2 00
 .rodata.flag_masks.3
                0x00068c48       0x1c networking/libiproute/lib.a(ipaddress.o)
 .rodata.flag_labels.4
                0x00068c64       0x3c networking/libiproute/lib.a(ipaddress.o)
 .rodata.option.1
                0x00068ca0       0x39 networking/libiproute/lib.a(ipaddress.o)
 .rodata.commands.0
                0x00068cd9       0x20 networking/libiproute/lib.a(ipaddress.o)
 *fill*         0x00068cf9        0x3 00
 .rodata.str1.4
                0x00068cfc       0xa3 networking/libiproute/lib.a(iplink.o)
                                 0xf0 (size before relaxing)
 .rodata.keywords.0
                0x00068d9f       0x13 networking/libiproute/lib.a(iplink.o)
 .rodata.keywords.1
                0x00068db2       0x29 networking/libiproute/lib.a(iplink.o)
 .rodata.str_on_off.2
                0x00068ddb        0x8 networking/libiproute/lib.a(iplink.o)
 *fill*         0x00068de3        0x1 00
 .rodata.str1.4
                0x00068de4      0x1a4 networking/libiproute/lib.a(iproute.o)
                                0x210 (size before relaxing)
 .rodata.keywords.3
                0x00068f88       0x48 networking/libiproute/lib.a(iproute.o)
 .rodata.fn.4   0x00068fd0       0x1f networking/libiproute/lib.a(iproute.o)
 .rodata.ip_route_commands.0
                0x00068fef       0x47 networking/libiproute/lib.a(iproute.o)
 .rodata.options.1
                0x00069036       0x26 networking/libiproute/lib.a(iproute.o)
 .rodata.keywords.5
                0x0006905c       0x26 networking/libiproute/lib.a(iproute.o)
 *fill*         0x00069082        0x2 00
 .rodata.str1.4
                0x00069084      0x138 networking/libiproute/lib.a(libnetlink.o)
                                0x144 (size before relaxing)
 .rodata.str1.4
                0x000691bc       0x1f networking/libiproute/lib.a(ll_addr.o)
                                 0x24 (size before relaxing)
 *fill*         0x000691db        0x1 00
 .rodata.str1.4
                0x000691dc       0x20 networking/libiproute/lib.a(ll_map.o)
                                 0x24 (size before relaxing)
 .rodata.arphrd_name.0
                0x000691fc       0x80 networking/libiproute/lib.a(ll_types.o)
 .rodata.arphrd_type.1
                0x0006927c       0x26 networking/libiproute/lib.a(ll_types.o)
 *fill*         0x000692a2        0x2 00
 .rodata.str1.4
                0x000692a4        0x5 networking/libiproute/lib.a(ll_types.o)
                                  0x8 (size before relaxing)
 *fill*         0x000692a9        0x3 00
 .rodata.str1.4
                0x000692ac       0xf7 networking/libiproute/lib.a(rt_names.o)
                                0x118 (size before relaxing)
 *fill*         0x000693a3        0x1 00
 .rodata.str1.4
                0x000693a4       0x41 networking/libiproute/lib.a(rtm_map.o)
                                 0x78 (size before relaxing)
 .rodata.keywords.0
                0x000693e5       0x61 networking/libiproute/lib.a(rtm_map.o)
 *fill*         0x00069446        0x2 00
 .rodata.str1.4
                0x00069448      0x130 networking/libiproute/lib.a(utils.o)
                                0x134 (size before relaxing)
 .rodata.str1.4
                0x00069578      0x281 networking/udhcp/lib.a(dhcpc.o)
                                0x290 (size before relaxing)
 .rodata.udhcpc_longopts.0
                0x000697f9       0xf7 networking/udhcp/lib.a(dhcpc.o)
 .rodata.dhcp_option_lengths
                0x000698f0        0xb networking/udhcp/lib.a(options.o)
                0x000698f0                dhcp_option_lengths
 .rodata.dhcp_option_strings
                0x000698fb      0x102 networking/udhcp/lib.a(options.o)
                0x000698fb                dhcp_option_strings
 *fill*         0x000699fd        0x3 00
 .rodata.dhcp_options
                0x00069a00       0x8c networking/udhcp/lib.a(options.o)
                0x00069a00                dhcp_options
 .rodata.str1.4
                0x00069a8c       0x6d networking/udhcp/lib.a(options.o)
                                 0x70 (size before relaxing)
 *fill*         0x00069af9        0x3 00
 .rodata.str1.4
                0x00069afc       0x60 networking/udhcp/lib.a(packet.o)
                                 0x68 (size before relaxing)
 .rodata.max_option_length
                0x00069b5c        0xb networking/udhcp/lib.a(script.o)
 *fill*         0x00069b67        0x1 00
 .rodata.str1.4
                0x00069b68       0x84 networking/udhcp/lib.a(script.o)
                                 0x9c (size before relaxing)
 .rodata.str1.4
                0x00069bec       0x13 networking/udhcp/lib.a(signalpipe.o)
                                 0x14 (size before relaxing)
 *fill*         0x00069bff        0x1 00
 .rodata.str1.4
                0x00069c00       0x54 networking/udhcp/lib.a(socket.o)
                                 0x64 (size before relaxing)
 .rodata.str1.4
                0x00069c54       0x22 networking/udhcp/lib.a(arpping.o)
                                 0x24 (size before relaxing)
 *fill*         0x00069c76        0x2 00
 .rodata.str1.4
                0x00069c78       0xc9 networking/udhcp/lib.a(clientpacket.o)
                                 0xcc (size before relaxing)
 *fill*         0x00069d41        0x3 00
 .rodata.filter_instr.0
                0x00069d44       0x48 networking/udhcp/lib.a(clientsocket.o)
 .rodata.MAC_BCAST_ADDR
                0x00069d8c        0x6 networking/udhcp/lib.a(common.o)
                0x00069d8c                MAC_BCAST_ADDR
 *fill*         0x00069d92        0x2 00
 .rodata.str1.4
                0x00069d94       0x9f procps/lib.a(kill.o)
                                 0xa4 (size before relaxing)
 *fill*         0x00069e33        0x1 00
 .rodata.str1.4
                0x00069e34       0x4b procps/lib.a(ps.o)
                                 0x50 (size before relaxing)
 *fill*         0x00069e7f        0x1 00
 .rodata.str1.4
                0x00069e80      0x239 procps/lib.a(top.o)
                                0x240 (size before relaxing)
 *fill*         0x0006a0b9        0x3 00
 .rodata.str1.4
                0x0006a0bc      0x9f0 shell/lib.a(ash.o)
                                0xa70 (size before relaxing)
 .rodata.defifsvar
                0x0006aaac        0x8 shell/lib.a(ash.o)
 .rodata.S_I_T  0x0006aab4       0x30 shell/lib.a(ash.o)
 .rodata.xxreadtoken_tokens
                0x0006aae4        0xa shell/lib.a(ash.o)
 .rodata.xxreadtoken_chars
                0x0006aaee        0x7 shell/lib.a(ash.o)
 .rodata.dolatstr
                0x0006aaf5        0x5 shell/lib.a(ash.o)
 .rodata.illnum
                0x0006aafa       0x13 shell/lib.a(ash.o)
 *fill*         0x0006ab0d        0x3 00
 .rodata.limits_name
                0x0006ab10       0x80 shell/lib.a(ash.o)
 .rodata.limits_tbl
                0x0006ab90       0x2c shell/lib.a(ash.o)
 .rodata.timescmd_str
                0x0006abbc        0x9 shell/lib.a(ash.o)
 .rodata.snlfmt
                0x0006abc5        0x4 shell/lib.a(ash.o)
 .rodata.op_tokens
                0x0006abc9       0x8d shell/lib.a(ash.o)
 .rodata.homestr
                0x0006ac56        0x5 shell/lib.a(ash.o)
 *fill*         0x0006ac5b        0x1 00
 .rodata.nodesize
                0x0006ac5c       0x34 shell/lib.a(ash.o)
 .rodata.spec_symbls.3
                0x0006ac90       0x1b shell/lib.a(ash.o)
 .rodata.syntax_index_table.4
                0x0006acab       0x1a shell/lib.a(ash.o)
 .rodata.vstype.12
                0x0006acc5       0x30 shell/lib.a(ash.o)
 .rodata.qchars.10
                0x0006acf5        0x3 shell/lib.a(ash.o)
 .rodata.C_escapes.2
                0x0006acf8       0x12 shell/lib.a(ash.o)
 .rodata.types.1
                0x0006ad0a        0x6 shell/lib.a(ash.o)
 .rodata.permuser.6
                0x0006ad10        0x3 shell/lib.a(ash.o)
 .rodata.permmode.7
                0x0006ad13        0x3 shell/lib.a(ash.o)
 .rodata.permmask.8
                0x0006ad16       0x12 shell/lib.a(ash.o)
 .rodata.spclchars.11
                0x0006ad28        0xa shell/lib.a(ash.o)
 .rodata.metachars.13
                0x0006ad32        0x4 shell/lib.a(ash.o)
 *fill*         0x0006ad36        0x2 00
 .rodata.str1.4
                0x0006ad38       0x10 util-linux/lib.a(dmesg.o)
 .rodata.mount_options
                0x0006ad48       0x94 util-linux/lib.a(mount.o)
 .rodata.mount_option_str
                0x0006addc      0x100 util-linux/lib.a(mount.o)
 .rodata.nfs_errtbl
                0x0006aedc       0x50 util-linux/lib.a(mount.o)
 .rodata.str1.4
                0x0006af2c      0x2e0 util-linux/lib.a(mount.o)
                                0x31c (size before relaxing)
 .rodata.options.0
                0x0006b20c       0xa1 util-linux/lib.a(mount.o)
 .rodata.options.1
                0x0006b2ad       0x39 util-linux/lib.a(mount.o)
 .rodata.filesystems.2
                0x0006b2e6       0x24 util-linux/lib.a(mount.o)
 .rodata.getopt_longopts.0
                0x0006b30a       0x24 util-linux/lib.a(script.o)
 *fill*         0x0006b32e        0x2 00
 .rodata.str1.4
                0x0006b330       0x59 util-linux/lib.a(script.o)
                                 0x64 (size before relaxing)
 *fill*         0x0006b389        0x3 00
 .rodata.str1.4
                0x0006b38c       0x66 util-linux/lib.a(umount.o)
                                 0x80 (size before relaxing)
 *fill*         0x0006b3f2        0x2 00
 .rodata.str1.4
                0x0006b3f4       0x87 archival/lib.a(bbunzip.o)
                                 0x88 (size before relaxing)
 .rodata.extra_blbits
                0x0006b47b       0x13 archival/lib.a(gzip.o)
 .rodata.extra_dbits
                0x0006b48e       0x1e archival/lib.a(gzip.o)
 .rodata.extra_lbits
                0x0006b4ac       0x1d archival/lib.a(gzip.o)
 .rodata.bl_order
                0x0006b4c9       0x13 archival/lib.a(gzip.o)
 .rodata.str1.4
                0x0006b4dc       0x19 archival/lib.a(gzip.o)
                                 0x1c (size before relaxing)
 *fill*         0x0006b4f5        0x3 00
 .rodata.str1.4
                0x0006b4f8      0x19d archival/lib.a(tar.o)
                                0x1e0 (size before relaxing)
 *fill*         0x0006b695        0x3 00
 .rodata.prefilled.1
                0x0006b698       0x30 archival/lib.a(tar.o)
 .rodata.str1.4
                0x0006b6c8      0x264 archival/lib.a(unzip.o)
 .rodata.extn.0
                0x0006b92c        0xf archival/lib.a(unzip.o)
 *fill*         0x0006b93b        0x1 00
 .rodata.str1.4
                0x0006b93c       0xd7 archival/libunarchive/lib.a(data_extract_all.o)
                                 0xd8 (size before relaxing)
 *fill*         0x0006ba13        0x1 00
 .rodata.str1.4
                0x0006ba14       0x1c archival/libunarchive/lib.a(decompress_bunzip2.o)
                                 0x38 (size before relaxing)
 .rodata.str1.4
                0x0006ba30       0x9b archival/libunarchive/lib.a(decompress_uncompress.o)
                                 0xa8 (size before relaxing)
 *fill*         0x0006bacb        0x1 00
 .rodata.str1.4
                0x0006bacc       0x1b archival/libunarchive/lib.a(decompress_unlzma.o)
                                 0x1c (size before relaxing)
 *fill*         0x0006bae7        0x1 00
 .rodata.mask_bits
                0x0006bae8       0x22 archival/libunarchive/lib.a(decompress_unzip.o)
 .rodata.border
                0x0006bb0a       0x13 archival/libunarchive/lib.a(decompress_unzip.o)
 .rodata.cpdext
                0x0006bb1d       0x1e archival/libunarchive/lib.a(decompress_unzip.o)
 *fill*         0x0006bb3b        0x1 00
 .rodata.cpdist
                0x0006bb3c       0x3c archival/libunarchive/lib.a(decompress_unzip.o)
 .rodata.cplext
                0x0006bb78       0x1f archival/libunarchive/lib.a(decompress_unzip.o)
 *fill*         0x0006bb97        0x1 00
 .rodata.cplens
                0x0006bb98       0x3e archival/libunarchive/lib.a(decompress_unzip.o)
 *fill*         0x0006bbd6        0x2 00
 .rodata.str1.4
                0x0006bbd8       0x35 archival/libunarchive/lib.a(decompress_unzip.o)
                                 0x5c (size before relaxing)
 *fill*         0x0006bc0d        0x3 00
 .rodata.str1.4
                0x0006bc10       0xbd archival/libunarchive/lib.a(get_header_tar.o)
                                 0xc0 (size before relaxing)
 *fill*         0x0006bccd        0x3 00
 .rodata.str1.4
                0x0006bcd0       0x13 archival/libunarchive/lib.a(get_header_tar_gz.o)
                                 0x14 (size before relaxing)
 *fill*         0x0006bce3        0x1 00
 .rodata.str1.4
                0x0006bce4       0x37 archival/libunarchive/lib.a(header_verbose_list.o)
                                 0x38 (size before relaxing)
 .rodata.str1.4
                0x0006bd1b        0x0 archival/libunarchive/lib.a(open_transformer.o)
                                  0x8 (size before relaxing)
 *fill*         0x0006bd1b        0x1 00
 .rodata.str1.4
                0x0006bd1c        0xd archival/libunarchive/lib.a(seek_by_jump.o)
                                 0x10 (size before relaxing)
 *fill*         0x0006bd29        0x3 00
 .rodata.str1.4
                0x0006bd2c       0x23 console-tools/lib.a(reset.o)
                                 0x24 (size before relaxing)
 *fill*         0x0006bd4f        0x1 00
 .rodata.str1.4
                0x0006bd50        0x2 coreutils/lib.a(cat.o)
                                  0x4 (size before relaxing)
 *fill*         0x0006bd52        0x2 00
 .rodata.str1.4
                0x0006bd54       0x1b coreutils/lib.a(chmod.o)
                                 0x1c (size before relaxing)
 *fill*         0x0006bd6f        0x1 00
 .rodata.str1.4
                0x0006bd70        0x3 coreutils/lib.a(chown.o)
                                  0x8 (size before relaxing)
 *fill*         0x0006bd73        0x1 00
 .rodata.str1.4
                0x0006bd74       0x2d coreutils/lib.a(cp.o)
                                 0x30 (size before relaxing)
 *fill*         0x0006bda1        0x3 00
 .rodata.dd_suffixes
                0x0006bda4       0x58 coreutils/lib.a(dd.o)
 .rodata.str1.4
                0x0006bdfc       0x41 coreutils/lib.a(dd.o)
                                 0x44 (size before relaxing)
 .rodata.keywords.0
                0x0006be3d       0x27 coreutils/lib.a(dd.o)
 .rodata.conv_words.1
                0x0006be64       0x1c coreutils/lib.a(dd.o)
 .rodata.str1.4
                0x0006be80       0xbf coreutils/lib.a(df.o)
                                 0xc8 (size before relaxing)
 *fill*         0x0006bf3f        0x1 00
 .rodata.str1.4
                0x0006bf40       0x52 coreutils/lib.a(du.o)
                                 0x58 (size before relaxing)
 *fill*         0x0006bf92        0x2 00
 .rodata.str1.4
                0x0006bf94        0x4 coreutils/lib.a(echo.o)
 .rodata.str1.4
                0x0006bf98       0x11 coreutils/lib.a(ln.o)
                                 0x14 (size before relaxing)
 *fill*         0x0006bfa9        0x3 00
 .rodata.opt_flags
                0x0006bfac       0x70 coreutils/lib.a(ls.o)
 .rodata.ls_options
                0x0006c01c       0x1e coreutils/lib.a(ls.o)
 .rodata.ls_color_opt
                0x0006c03a        0x9 coreutils/lib.a(ls.o)
 *fill*         0x0006c043        0x1 00
 .rodata.str1.4
                0x0006c044       0xbe coreutils/lib.a(ls.o)
                                 0xe4 (size before relaxing)
 .rodata.mkdir_longopts
                0x0006c102       0x12 coreutils/lib.a(mkdir.o)
 .rodata.str1.4
                0x0006c114       0x16 coreutils/lib.a(mkdir.o)
                                 0x18 (size before relaxing)
 *fill*         0x0006c12a        0x2 00
 .rodata.modes_cubp
                0x0006c12c        0xc coreutils/lib.a(mknod.o)
 .rodata.modes_chars
                0x0006c138        0x8 coreutils/lib.a(mknod.o)
 .rodata.mv_longopts
                0x0006c140       0x17 coreutils/lib.a(mv.o)
 .rodata.fmt.0  0x0006c157       0x2e coreutils/lib.a(mv.o)
 *fill*         0x0006c185        0x3 00
 .rodata.str1.4
                0x0006c188       0x57 coreutils/lib.a(mv.o)
                                 0x5c (size before relaxing)
 *fill*         0x0006c1df        0x1 00
 .rodata.str1.4
                0x0006c1e0       0x10 coreutils/lib.a(nice.o)
                                 0x14 (size before relaxing)
 .rodata.str1.4
                0x0006c1f0       0x43 coreutils/lib.a(printf.o)
                                 0x48 (size before relaxing)
 *fill*         0x0006c233        0x1 00
 .rodata.str1.4
                0x0006c234       0x2a coreutils/lib.a(rm.o)
                                 0x2c (size before relaxing)
 *fill*         0x0006c25e        0x2 00
 .rodata.sfx    0x0006c260       0x28 coreutils/lib.a(sleep.o)
 .rodata.str1.4
                0x0006c288        0xc coreutils/lib.a(sleep.o)
 .rodata.ops    0x0006c294      0x140 coreutils/lib.a(test.o)
 .rodata.str1.4
                0x0006c3d4       0x68 coreutils/lib.a(test.o)
                                 0x80 (size before relaxing)
 .rodata.no_op.0
                0x0006c43c        0x8 coreutils/lib.a(test.o)
 .rodata.str1.4
                0x0006c444        0x5 coreutils/lib.a(touch.o)
                                  0x8 (size before relaxing)
 *fill*         0x0006c449        0x1 00
 .rodata.utsname_offset
                0x0006c44a        0xc coreutils/lib.a(uname.o)
 .rodata.options
                0x0006c456        0x8 coreutils/lib.a(uname.o)
 .rodata.str1.4
                0x0006c45e        0x0 coreutils/lib.a(uname.o)
                                  0x8 (size before relaxing)
 .rodata.str1.4
                0x0006c45e        0x0 coreutils/libcoreutils/lib.a(cp_mv_stat.o)
                                 0x14 (size before relaxing)
 *fill*         0x0006c45e        0x2 00
 .rodata.str1.4
                0x0006c460        0x3 coreutils/libcoreutils/lib.a(getopt_mk_fifo_nod.o)
                                  0x4 (size before relaxing)
 *fill*         0x0006c463        0x1 00
 .rodata.str1.4
                0x0006c464       0x22 debianutils/lib.a(mktemp.o)
                                 0x28 (size before relaxing)
 .rodata.runparts_longopts
                0x0006c486       0x27 debianutils/lib.a(run_parts.o)
 *fill*         0x0006c4ad        0x3 00
 .rodata.str1.4
                0x0006c4b0       0x3b debianutils/lib.a(run_parts.o)
                                 0x3c (size before relaxing)
 .rodata.start_stop_daemon_longopts
                0x0006c4eb       0x9c debianutils/lib.a(start_stop_daemon.o)
 *fill*         0x0006c587        0x1 00
 .rodata.str1.4
                0x0006c588      0x168 debianutils/lib.a(start_stop_daemon.o)
                                0x18c (size before relaxing)
 .rodata.str1.4
                0x0006c6f0        0x0 debianutils/lib.a(which.o)
                                 0x10 (size before relaxing)
 .rodata.vValues
                0x0006c6f0       0x18 editors/lib.a(awk.o)
 .rodata.vNames
                0x0006c708       0x6b editors/lib.a(awk.o)
 .rodata.EMSG_INV_FMT
                0x0006c773       0x19 editors/lib.a(awk.o)
 .rodata.PRIMES
                0x0006c78c        0xa editors/lib.a(awk.o)
 *fill*         0x0006c796        0x2 00
 .rodata.tokeninfo
                0x0006c798      0x18c editors/lib.a(awk.o)
 .rodata.tokenlist
                0x0006c924      0x1b9 editors/lib.a(awk.o)
 .rodata.EMSG_UNEXP_TOKEN
                0x0006cadd       0x11 editors/lib.a(awk.o)
 .rodata.EMSG_UNEXP_EOS
                0x0006caee       0x19 editors/lib.a(awk.o)
 .rodata.EMSG_DIV_BY_ZERO
                0x0006cb07       0x11 editors/lib.a(awk.o)
 .rodata.EMSG_NO_MATH
                0x0006cb18       0x20 editors/lib.a(awk.o)
 .rodata.EMSG_UNDEF_FUNC
                0x0006cb38       0x1b editors/lib.a(awk.o)
 .rodata.EMSG_POSSIBLE_ERROR
                0x0006cb53       0x16 editors/lib.a(awk.o)
 .rodata.EMSG_NOT_ARRAY
                0x0006cb69        0xd editors/lib.a(awk.o)
 .rodata.EMSG_TOO_FEW_ARGS
                0x0006cb76       0x1e editors/lib.a(awk.o)
 .rodata.EMSG_INTERNAL_ERROR
                0x0006cb94        0xf editors/lib.a(awk.o)
 *fill*         0x0006cba3        0x1 00
 .rodata.str1.4
                0x0006cba4       0xe4 editors/lib.a(awk.o)
                                0x104 (size before relaxing)
 .rodata.semicolon_whitespace
                0x0006cc88        0x7 editors/lib.a(sed.o)
 *fill*         0x0006cc8f        0x1 00
 .rodata.str1.4
                0x0006cc90      0x1e7 editors/lib.a(sed.o)
                                0x208 (size before relaxing)
 *fill*         0x0006ce77        0x1 00
 .rodata.str1.4
                0x0006ce78       0x5d findutils/lib.a(grep.o)
                                 0x6c (size before relaxing)
 *fill*         0x0006ced5        0x3 00
 .rodata.magic.0
                0x0006ced8        0xc init/lib.a(halt.o)
 .rodata.signals.1
                0x0006cee4        0xc init/lib.a(halt.o)
 .rodata.str1.4
                0x0006cef0       0x18 init/lib.a(halt.o)
                                 0x1c (size before relaxing)
 .rodata.str1.4
                0x0006cf08      0x25a init/lib.a(init.o)
                                0x2a8 (size before relaxing)
 .rodata.press_enter.1
                0x0006d162       0x2f init/lib.a(init.o)
 .rodata.actions.0
                0x0006d191       0x40 init/lib.a(init.o)
 *fill*         0x0006d1d1        0x3 00
 .rodata.str1.4
                0x0006d1d4       0x15 init/lib.a(mesg.o)
                                 0x18 (size before relaxing)
 *fill*         0x0006d1e9        0x3 00
 .rodata.str1.4
                0x0006d1ec       0x2b libbb/lib.a(bb_pwd.o)
                                 0x40 (size before relaxing)
 *fill*         0x0006d217        0x1 00
 .rodata.str1.4
                0x0006d218       0x11 libbb/lib.a(change_identity.o)
                                 0x14 (size before relaxing)
 *fill*         0x0006d229        0x3 00
 .rodata.str1.4
                0x0006d22c      0x15e libbb/lib.a(copy_file.o)
                                0x18c (size before relaxing)
 *fill*         0x0006d38a        0x2 00
 .rodata.str1.4
                0x0006d38c        0xf libbb/lib.a(correct_password.o)
                                 0x10 (size before relaxing)
 .rodata.str1.4
                0x0006d39b        0x0 libbb/lib.a(find_mount_point.o)
                                  0x4 (size before relaxing)
 .rodata.str1.4
                0x0006d39b        0x0 libbb/lib.a(getopt32.o)
                                  0x4 (size before relaxing)
 *fill*         0x0006d39b        0x1 00
 .rodata.bb_null_long_options
                0x0006d39c       0x10 libbb/lib.a(getopt32.o)
 .rodata.str1.4
                0x0006d3ac       0x48 libbb/lib.a(getpty.o)
 .rodata.zero_and_units.0
                0x0006d3f4        0x6 libbb/lib.a(human_readable.o)
 .rodata.fmt.1  0x0006d3fa        0x5 libbb/lib.a(human_readable.o)
 .rodata.fmt_tenths.2
                0x0006d3ff        0xa libbb/lib.a(human_readable.o)
 *fill*         0x0006d409        0x3 00
 .rodata.str1.4
                0x0006d40c       0x27 libbb/lib.a(inet_common.o)
                                 0x2c (size before relaxing)
 .rodata.str1.4
                0x0006d433        0x0 libbb/lib.a(inode_hash.o)
                                  0x4 (size before relaxing)
 *fill*         0x0006d433        0x1 00
 .rodata.str1.4
                0x0006d434       0x1e libbb/lib.a(kernel_version.o)
                                 0x24 (size before relaxing)
 *fill*         0x0006d452        0x2 00
 .rodata.str1.4
                0x0006d454       0x4c libbb/lib.a(lineedit.o)
                                 0x5c (size before relaxing)
 .rodata.forbid
                0x0006d4a0       0x96 libbb/lib.a(login.o)
 .rodata.fmtstr_t
                0x0006d536        0x9 libbb/lib.a(login.o)
 .rodata.fmtstr_d
                0x0006d53f        0xd libbb/lib.a(login.o)
 .rodata.str1.4
                0x0006d54c        0x9 libbb/lib.a(login.o)
                                 0x10 (size before relaxing)
 *fill*         0x0006d555        0x3 00
 .rodata.str1.4
                0x0006d558       0x14 libbb/lib.a(loop.o)
 .rodata.str1.4
                0x0006d56c       0x35 libbb/lib.a(make_directory.o)
                                 0x38 (size before relaxing)
 *fill*         0x0006d5a1        0x3 00
 .rodata.mode_chars
                0x0006d5a4        0x8 libbb/lib.a(mode_string.o)
 .rodata.type_chars
                0x0006d5ac       0x10 libbb/lib.a(mode_string.o)
 .rodata.bb_path_mtab_file
                0x0006d5bc        0xd libbb/lib.a(mtab_file.o)
                0x0006d5bc                bb_path_mtab_file
 *fill*         0x0006d5c9        0x3 00
 .rodata.str1.4
                0x0006d5cc       0x9a libbb/lib.a(obscure.o)
                                 0x9c (size before relaxing)
 *fill*         0x0006d666        0x2 00
 .rodata.str1.4
                0x0006d668       0x28 libbb/lib.a(parse_config.o)
 .rodata.who_mask.0
                0x0006d690       0x10 libbb/lib.a(parse_mode.o)
 .rodata.perm_mask.1
                0x0006d6a0       0x18 libbb/lib.a(parse_mode.o)
 .rodata.who_chars.2
                0x0006d6b8        0x5 libbb/lib.a(parse_mode.o)
 .rodata.perm_chars.3
                0x0006d6bd        0x7 libbb/lib.a(parse_mode.o)
 .rodata.str1.4
                0x0006d6c4        0x0 libbb/lib.a(print_flags.o)
                                  0xc (size before relaxing)
 .rodata.str1.4
                0x0006d6c4        0x3 libbb/lib.a(printable.o)
                                  0x4 (size before relaxing)
 .rodata.charmap.0
                0x0006d6c7       0x12 libbb/lib.a(process_escape_sequence.o)
 *fill*         0x0006d6d9        0x3 00
 .rodata.str1.4
                0x0006d6dc        0x9 libbb/lib.a(procps.o)
                                 0x44 (size before relaxing)
 *fill*         0x0006d6e5        0x3 00
 .rodata.str1.4
                0x0006d6e8       0x66 libbb/lib.a(remove_file.o)
                                 0xa4 (size before relaxing)
 *fill*         0x0006d74e        0x2 00
 .rodata.str1.4
                0x0006d750       0x12 libbb/lib.a(run_shell.o)
                                 0x18 (size before relaxing)
 .rodata.str1.4
                0x0006d762        0x0 libbb/lib.a(safe_gethostname.o)
                                  0x4 (size before relaxing)
 *fill*         0x0006d762        0x2 00
 .rodata.str1.4
                0x0006d764       0x34 libbb/lib.a(setup_environment.o)
                                 0x58 (size before relaxing)
 .rodata.signals
                0x0006d798       0xe0 libbb/lib.a(u_signal_names.o)
 .rodata.str1.4
                0x0006d878        0x4 libbb/lib.a(u_signal_names.o)
 .rodata.str1.4
                0x0006d87c       0x46 libbb/lib.a(update_passwd.o)
                                 0x70 (size before relaxing)
 .rodata.bb_uuenc_tbl_base64
                0x0006d8c2       0x43 libbb/lib.a(uuencode.o)
                0x0006d8c2                bb_uuenc_tbl_base64
 *fill*         0x0006d905        0x3 00
 .rodata.str1.4
                0x0006d908        0x5 libbb/lib.a(vfork_daemon_rexec.o)
                                  0xc (size before relaxing)
 .rodata.str1.4
                0x0006d90d        0x0 libbb/lib.a(wfopen_input.o)
                                  0x4 (size before relaxing)
 *fill*         0x0006d90d        0x3 00
 .rodata.str1.4
                0x0006d910       0x61 libbb/lib.a(xatonum.o)
                                 0x64 (size before relaxing)
 *fill*         0x0006d971        0x3 00
 .rodata.str1.4
                0x0006d974       0x58 libbb/lib.a(xconnect.o)
                                 0x60 (size before relaxing)
 .rodata.str1.4
                0x0006d9cc        0x7 libbb/lib.a(xgetcwd.o)
                                  0x8 (size before relaxing)
 .rodata.str1.4
                0x0006d9d3        0x0 libbb/lib.a(xgethostbyname.o)
                                  0x4 (size before relaxing)
 *fill*         0x0006d9d3        0x1 00
 .rodata.str1.4
                0x0006d9d4       0x13 libbb/lib.a(xregcomp.o)
                                 0x14 (size before relaxing)
 *fill*         0x0006d9e7        0x1 00
 .rodata.str1.4
                0x0006d9e8       0x16 libpwdgrp/lib.a(uidgid_get.o)
                                 0x18 (size before relaxing)
 .rodata        0x0006d9fe      0x100 /home/devicenull/ipmi/SDK/ToolChain/Host/HERMON/gcc-3.4.4-glibc-2.3.5-armv4/arm-linux/bin/../lib/gcc/arm-linux/3.4.4/libgcc.a(_clz.oS)
                0x0006d9fe                __clz_tab

.rodata1
 *(SORT(.rodata1))

.eh_frame_hdr
 *(SORT(.eh_frame_hdr))

.eh_frame       0x0006db00        0x4
 *(SORT(.eh_frame))
 .eh_frame      0x0006db00        0x4 /home/devicenull/ipmi/SDK/ToolChain/Host/HERMON/gcc-3.4.4-glibc-2.3.5-armv4/arm-linux/bin/../lib/gcc/arm-linux/3.4.4/crtend.o

.gcc_except_table
 *(SORT(.gcc_except_table))
 *(SORT(.gcc_except_table.*))
                0x0006db04                . = (ALIGN (0x8000) - ((0x8000 - .) & 0x7fff))
                0x00076000                . = (0x8000 DATA_SEGMENT_ALIGN 0x1000)

.eh_frame
 *(SORT(.eh_frame))

.gcc_except_table
 *(SORT(.gcc_except_table))
 *(SORT(.gcc_except_table.*))

.tdata
 *(SORT(.tdata) .tdata.* .gnu.linkonce.td.*)

.tbss
 *(SORT(.tbss) .tbss.* .gnu.linkonce.tb.*)
 *(SORT(.tcommon))
                0x00076000                . = ALIGN (0x4)
                0x00076000                PROVIDE (__preinit_array_start, .)

.preinit_array
 *(SORT(.preinit_array))
                0x00076000                PROVIDE (__preinit_array_end, .)
                0x00076000                PROVIDE (__init_array_start, .)

.init_array
 *(SORT(.init_array))
                0x00076000                PROVIDE (__init_array_end, .)
                0x00076000                PROVIDE (__fini_array_start, .)

.fini_array
 *(SORT(.fini_array))
                0x00076000                PROVIDE (__fini_array_end, .)

.ctors          0x00076000        0x8
 *crtbegin*.o(SORT(.ctors))
 *(SORT(EXCLUDE_FILE(*crtend*.o) .ctors))
 .ctors         0x00076000        0x4 /home/devicenull/ipmi/SDK/ToolChain/Host/HERMON/gcc-3.4.4-glibc-2.3.5-armv4/arm-linux/bin/../lib/gcc/arm-linux/3.4.4/crtbegin.o
 *(SORT(.ctors.*))
 *(SORT(.ctors))
 .ctors         0x00076004        0x4 /home/devicenull/ipmi/SDK/ToolChain/Host/HERMON/gcc-3.4.4-glibc-2.3.5-armv4/arm-linux/bin/../lib/gcc/arm-linux/3.4.4/crtend.o

.dtors          0x00076008        0x8
 *crtbegin*.o(SORT(.dtors))
 *(SORT(EXCLUDE_FILE(*crtend*.o) .dtors))
 .dtors         0x00076008        0x4 /home/devicenull/ipmi/SDK/ToolChain/Host/HERMON/gcc-3.4.4-glibc-2.3.5-armv4/arm-linux/bin/../lib/gcc/arm-linux/3.4.4/crtbegin.o
 *(SORT(.dtors.*))
 *(SORT(.dtors))
 .dtors         0x0007600c        0x4 /home/devicenull/ipmi/SDK/ToolChain/Host/HERMON/gcc-3.4.4-glibc-2.3.5-armv4/arm-linux/bin/../lib/gcc/arm-linux/3.4.4/crtend.o

.jcr            0x00076010        0x4
 *(SORT(.jcr))
 .jcr           0x00076010        0x4 /home/devicenull/ipmi/SDK/ToolChain/Host/HERMON/gcc-3.4.4-glibc-2.3.5-armv4/arm-linux/bin/../lib/gcc/arm-linux/3.4.4/crtend.o

.data.rel.ro
 *(SORT(.data.rel.ro.local))
 *(SORT(.data.rel.ro*))

.dynamic        0x00076014       0xd0
 *(SORT(.dynamic))
 .dynamic       0x00076014       0xd0 /home/devicenull/ipmi/SDK/ToolChain/Host/HERMON/gcc-3.4.4-glibc-2.3.5-armv4/arm-linux/bin/../lib/gcc/arm-linux/3.4.4/../../../../arm-linux/lib/crti.o
                0x00076014                _DYNAMIC
                0x000760e4                . = (. DATA_SEGMENT_RELRO_END 0x0)

.got            0x000760e4      0xbf0
 *(SORT(.got.plt))
 .got.plt       0x000760e4      0x488 /home/devicenull/ipmi/SDK/ToolChain/Host/HERMON/gcc-3.4.4-glibc-2.3.5-armv4/arm-linux/bin/../lib/gcc/arm-linux/3.4.4/../../../../arm-linux/lib/crti.o
                0x000760e4                _GLOBAL_OFFSET_TABLE_
 *(SORT(.got))
 .got           0x0007656c      0x768 /home/devicenull/ipmi/SDK/ToolChain/Host/HERMON/gcc-3.4.4-glibc-2.3.5-armv4/arm-linux/bin/../lib/gcc/arm-linux/3.4.4/../../../../arm-linux/lib/crti.o

.data           0x00076cd4      0x8a8
                0x00076cd4                __data_start = .
 *(SORT(.data) .data.* .gnu.linkonce.d.*)
 .data          0x00076cd4        0x8 /home/devicenull/ipmi/SDK/ToolChain/Host/HERMON/gcc-3.4.4-glibc-2.3.5-armv4/arm-linux/bin/../lib/gcc/arm-linux/3.4.4/crtbegin.o
                0x00076cd4                __dso_handle
 .data.applet_main
                0x00076cdc      0x15c libbb/lib.a(appletlib.o)
                0x00076cdc                applet_main
 .data.install_dir.3
                0x00076e38       0x14 libbb/lib.a(appletlib.o)
 .data.xfunc_error_retval
                0x00076e4c        0x4 libbb/lib.a(default_error_retval.o)
                0x00076e4c                xfunc_error_retval
 .data.msg_eol  0x00076e50        0x4 libbb/lib.a(verror_msg.o)
                0x00076e50                msg_eol
 .data.logmode  0x00076e54        0x4 libbb/lib.a(verror_msg.o)
                0x00076e54                logmode
 .data.gpl_licenses.0
                0x00076e58       0x14 modutils/lib.a(insmod.o)
 .data.specials.3
                0x00076e6c       0x10 modutils/lib.a(insmod.o)
 .data.device   0x00076e7c        0x4 networking/lib.a(arp.o)
 .data.Arg1Opt  0x00076e80       0x80 networking/lib.a(ifconfig.o)
 .data.OptArray
                0x00076f00       0xc0 networking/lib.a(ifconfig.o)
 .data.addr_inet6
                0x00076fc0        0xc networking/lib.a(ifupdown.o)
 .data.methods6
                0x00076fcc       0x24 networking/lib.a(ifupdown.o)
 .data.addr_inet
                0x00076ff0        0xc networking/lib.a(ifupdown.o)
 .data.methods  0x00076ffc       0x54 networking/lib.a(ifupdown.o)
 .data.addr_fams.0
                0x00077050        0xc networking/lib.a(ifupdown.o)
 .data.ss_fmt   0x0007705c        0xc networking/lib.a(interface.o)
 .data.if_port_text
                0x00077068       0x20 networking/lib.a(interface.o)
 .data.aftypes  0x00077088       0x10 networking/lib.a(interface.o)
 .data.unspec_aftype
                0x00077098       0x2c networking/lib.a(interface.o)
 .data.inet6_aftype
                0x000770c4       0x2c networking/lib.a(interface.o)
 .data.inet_aftype
                0x000770f0       0x2c networking/lib.a(interface.o)
 .data.ib_hwtype
                0x0007711c       0x20 networking/lib.a(interface.o)
 .data.hwtypes  0x0007713c       0x1c networking/lib.a(interface.o)
 .data.sit_hwtype
                0x00077158       0x20 networking/lib.a(interface.o)
 .data.unspec_hwtype
                0x00077178       0x20 networking/lib.a(interface.o)
 .data.ppp_hwtype
                0x00077198       0x20 networking/lib.a(interface.o)
 .data.ether_hwtype
                0x000771b8       0x20 networking/lib.a(interface.o)
 .data.loop_hwtype
                0x000771d8       0x20 networking/lib.a(interface.o)
 .data.tcp_state
                0x000771f8       0x30 networking/lib.a(netstat.o)
 .data.loginpath
                0x00077228        0x4 networking/lib.a(telnetd.o)
 .data.issuefile
                0x0007722c        0x4 networking/lib.a(telnetd.o)
 .data.ttab.0   0x00077230       0x4c networking/lib.a(traceroute.o)
 .data.preferred_family
                0x0007727c        0x1 networking/libiproute/lib.a(ip_parse_common_args.o)
                0x0007727c                preferred_family
 *fill*         0x0007727d        0x3 00
 .data.init_tab.8
                0x00077280       0x34 networking/libiproute/lib.a(rt_names.o)
 .data.cache.6  0x000772b4        0x4 networking/libiproute/lib.a(rt_names.o)
 .data.cache.4  0x000772b8        0x4 networking/libiproute/lib.a(rt_names.o)
 .data.sockfd   0x000772bc        0x4 networking/udhcp/lib.a(dhcpc.o)
 .data.filter_prog.1
                0x000772c0        0x8 networking/udhcp/lib.a(clientsocket.o)
 .data.varinit_data
                0x000772c8       0x60 shell/lib.a(ash.o)
 .data.g_parsefile
                0x00077328        0x4 shell/lib.a(ash.o)
 .data.builtinloc
                0x0007732c        0x4 shell/lib.a(ash.o)
 .data.plinno   0x00077330        0x4 shell/lib.a(ash.o)
 .data.optletters_optnames
                0x00077334       0x38 shell/lib.a(ash.o)
 .data.ttyfd    0x0007736c        0x4 shell/lib.a(ash.o)
 .data.tokname_array
                0x00077370       0x74 shell/lib.a(ash.o)
 .data.builtintab
                0x000773e4      0x148 shell/lib.a(ash.o)
 .data.arg_REPLY.9
                0x0007752c        0x8 shell/lib.a(ash.o)
 .data.null_bltin.14
                0x00077534        0x8 shell/lib.a(ash.o)
 .data.fd_count
                0x0007753c        0x4 util-linux/lib.a(script.o)
 .data.args.0   0x00077540        0xc console-tools/lib.a(reset.o)
 .data.init_action_list
                0x0007754c        0x4 init/lib.a(init.o)
 .data.environment
                0x00077550       0x14 init/lib.a(init.o)
 .data.log_console
                0x00077564        0x4 init/lib.a(init.o)
 .data.got_cont
                0x00077568        0x4 init/lib.a(init.o)
 .data.log_fd.2
                0x0007756c        0x4 init/lib.a(init.o)
 .data.bb_argv_dash
                0x00077570        0x8 libbb/lib.a(getopt32.o)
                0x00077570                bb_argv_dash
 .data.cache.0  0x00077578        0x4 libbb/lib.a(inet_common.o)
 *(SORT(.gnu.linkonce.d.*personality*))

.data1
 *(SORT(.data1))
                0x0007757c                _edata = .
                0x0007757c                PROVIDE (edata, .)
                0x0007757c                __bss_start = .
                0x0007757c                __bss_start__ = .

.bss            0x00077580     0x22c4
 *(SORT(.dynbss))
 .dynbss        0x00077580       0x18 /home/devicenull/ipmi/SDK/ToolChain/Host/HERMON/gcc-3.4.4-glibc-2.3.5-armv4/arm-linux/bin/../lib/gcc/arm-linux/3.4.4/../../../../arm-linux/lib/crti.o
                0x00077580                environ@@GLIBC_2.0
                0x00077584                stdout@@GLIBC_2.0
                0x00077588                stderr@@GLIBC_2.0
                0x00077580                __environ@@GLIBC_2.0
                0x00077580                _environ@@GLIBC_2.0
                0x0007758c                stdin@@GLIBC_2.0
                0x00077590                optarg@@GLIBC_2.0
                0x00077594                optind@@GLIBC_2.0
 *(SORT(.bss) .bss.* .gnu.linkonce.b.*)
 .bss           0x00077598        0x1 /home/devicenull/ipmi/SDK/ToolChain/Host/HERMON/gcc-3.4.4-glibc-2.3.5-armv4/arm-linux/bin/../lib/gcc/arm-linux/3.4.4/crtbegin.o
 *fill*         0x00077599        0x3 00
 .bss.applet_name
                0x0007759c        0x4 libbb/lib.a(appletlib.o)
                0x0007759c                applet_name
 .bss.ruid      0x000775a0        0x4 libbb/lib.a(appletlib.o)
 .bss.suid_config
                0x000775a4        0x4 libbb/lib.a(appletlib.o)
 .bss.suid_cfg_readable
                0x000775a8        0x1 libbb/lib.a(appletlib.o)
 *fill*         0x000775a9        0x7 00
 .bss.bb_common_bufsiz1
                0x000775b0     0x2008 libbb/lib.a(messages.o)
                0x000775b0                bb_common_bufsiz1
 .bss.ptr_to_globals
                0x000795b8        0x4 libbb/lib.a(ptr_to_globals.o)
                0x000795b8                ptr_to_globals
 .bss.bb_errno  0x000795bc        0x4 libbb/lib.a(ptr_to_globals.o)
                0x000795bc                bb_errno
 .bss.die_sleep
                0x000795c0        0x4 libbb/lib.a(xfunc_die.o)
                0x000795c0                die_sleep
 .bss.local_buf
                0x000795c4        0xc libbb/lib.a(xfuncs.o)
 .bss.short_tty
                0x000795d0        0x4 loginutils/lib.a(login.o)
 .bss.printed_info.2
                0x000795d4        0x4 modutils/lib.a(insmod.o)
 .bss.ksyms     0x000795d8        0x4 modutils/lib.a(insmod.o)
 .bss.nksyms    0x000795dc        0x4 modutils/lib.a(insmod.o)
 .bss.ext_modules
                0x000795e0        0x4 modutils/lib.a(insmod.o)
 .bss.n_ext_modules
                0x000795e4        0x4 modutils/lib.a(insmod.o)
 .bss.n_ext_modules_used
                0x000795e8        0x4 modutils/lib.a(insmod.o)
 .bss.m_filename
                0x000795ec        0x4 modutils/lib.a(insmod.o)
 .bss.m_fullName
                0x000795f0        0x4 modutils/lib.a(insmod.o)
 .bss.ap        0x000795f4        0x4 networking/lib.a(arp.o)
 .bss.hw        0x000795f8        0x4 networking/lib.a(arp.o)
 .bss.sockfd    0x000795fc        0x4 networking/lib.a(arp.o)
 .bss.hw_set    0x00079600        0x4 networking/lib.a(arp.o)
 .bss.label_buf.1
                0x00079604        0x4 networking/lib.a(ifupdown.o)
 .bss.my_environ
                0x00079608        0x4 networking/lib.a(ifupdown.o)
 .bss.startup_PATH
                0x0007960c        0x4 networking/lib.a(ifupdown.o)
 .bss.buff.3    0x00079610        0x4 networking/lib.a(interface.o)
 .bss.buff.5    0x00079614        0x4 networking/lib.a(interface.o)
 .bss.buff.4    0x00079618        0x4 networking/lib.a(interface.o)
 .bss.proc_read.0
                0x0007961c        0x4 networking/lib.a(interface.o)
 .bss.buff.6    0x00079620        0x4 networking/lib.a(interface.o)
 .bss.interface_opt_a
                0x00079624        0x4 networking/lib.a(interface.o)
                0x00079624                interface_opt_a
 .bss.int_list  0x00079628        0x4 networking/lib.a(interface.o)
 .bss.int_last  0x0007962c        0x4 networking/lib.a(interface.o)
 .bss.maxfd     0x00079630        0x4 networking/lib.a(telnetd.o)
 .bss.sessions  0x00079634        0x4 networking/lib.a(telnetd.o)
 .bss.oneline   0x00079638        0x4 networking/libiproute/lib.a(ip_parse_common_args.o)
                0x00079638                oneline
 .bss._SL_      0x0007963c        0x1 networking/libiproute/lib.a(ip_parse_common_args.o)
                0x0007963c                _SL_
 *fill*         0x0007963d        0x3 00
 .bss.hz_internal.2
                0x00079640        0x4 networking/libiproute/lib.a(iproute.o)
 .bss.nbuf.0    0x00079644       0x10 networking/libiproute/lib.a(ll_map.o)
 .bss.idxmap    0x00079654       0x40 networking/libiproute/lib.a(ll_map.o)
 .bss.res.7     0x00079694        0x4 networking/libiproute/lib.a(rt_names.o)
 .bss.res.5     0x00079698        0x4 networking/libiproute/lib.a(rt_names.o)
 .bss.rtnl_rtprot_tab
                0x0007969c        0x4 networking/libiproute/lib.a(rt_names.o)
 .bss.rtnl_rtscope_tab
                0x000796a0        0x4 networking/libiproute/lib.a(rt_names.o)
 .bss.listen_mode
                0x000796a4        0x4 networking/udhcp/lib.a(dhcpc.o)
 .bss.state     0x000796a8        0x4 networking/udhcp/lib.a(dhcpc.o)
 .bss.signal_pipe
                0x000796ac        0x8 networking/udhcp/lib.a(signalpipe.o)
 .bss.initialized.0
                0x000796b4        0x4 networking/udhcp/lib.a(clientpacket.o)
 .bss.buf.5     0x000796b8       0x10 shell/lib.a(ash.o)
 .bss.is_interactive.0
                0x000796c8        0x4 shell/lib.a(ash.o)
 .bss.basepf    0x000796cc       0x34 shell/lib.a(ash.o)
 .bss.startlinno
                0x00079700        0x4 shell/lib.a(ash.o)
 .bss.commandname
                0x00079704        0x4 shell/lib.a(ash.o)
 .bss.cmdenviron
                0x00079708        0x4 shell/lib.a(ash.o)
 .bss.exitstatus
                0x0007970c        0x1 shell/lib.a(ash.o)
 *fill*         0x0007970d        0x3 00
 .bss.argptr    0x00079710        0x4 shell/lib.a(ash.o)
 .bss.optionarg
                0x00079714        0x4 shell/lib.a(ash.o)
 .bss.optptr    0x00079718        0x4 shell/lib.a(ash.o)
 .bss.pathopt   0x0007971c        0x4 shell/lib.a(ash.o)
 .bss.doprompt  0x00079720        0x4 shell/lib.a(ash.o)
 .bss.needprompt
                0x00079724        0x4 shell/lib.a(ash.o)
 .bss.line_input_state
                0x00079728        0x4 shell/lib.a(ash.o)
 .bss.cmdedit_prompt
                0x0007972c        0x4 shell/lib.a(ash.o)
 .bss.atab      0x00079730        0x4 shell/lib.a(ash.o)
 .bss.doing_jobctl
                0x00079734        0x4 shell/lib.a(ash.o)
 .bss.initialpgrp
                0x00079738        0x4 shell/lib.a(ash.o)
 .bss.jobtab    0x0007973c        0x4 shell/lib.a(ash.o)
 .bss.njobs     0x00079740        0x4 shell/lib.a(ash.o)
 .bss.curjob    0x00079744        0x4 shell/lib.a(ash.o)
 .bss.jobless   0x00079748        0x4 shell/lib.a(ash.o)
 .bss.cmdnextc  0x0007974c        0x4 shell/lib.a(ash.o)
 .bss.expdest   0x00079750        0x4 shell/lib.a(ash.o)
 .bss.argbackq  0x00079754        0x4 shell/lib.a(ash.o)
 .bss.ifsfirst  0x00079758       0x10 shell/lib.a(ash.o)
 .bss.ifslastp  0x00079768        0x4 shell/lib.a(ash.o)
 .bss.exparg    0x0007976c        0x8 shell/lib.a(ash.o)
 .bss.back_exitstatus
                0x00079774        0x1 shell/lib.a(ash.o)
 *fill*         0x00079775        0x3 00
 .bss.expdir    0x00079778        0x4 shell/lib.a(ash.o)
 .bss.cmdtable  0x0007977c        0x4 shell/lib.a(ash.o)
 .bss.lastcmdentry
                0x00079780        0x4 shell/lib.a(ash.o)
 .bss.funcblocksize
                0x00079784        0x4 shell/lib.a(ash.o)
 .bss.funcstringsize
                0x00079788        0x4 shell/lib.a(ash.o)
 .bss.funcblock
                0x0007978c        0x4 shell/lib.a(ash.o)
 .bss.funcstring
                0x00079790        0x4 shell/lib.a(ash.o)
 .bss.evalskip  0x00079794        0x4 shell/lib.a(ash.o)
 .bss.skipcount
                0x00079798        0x4 shell/lib.a(ash.o)
 .bss.funcnest  0x0007979c        0x4 shell/lib.a(ash.o)
 .bss.loopnest  0x000797a0        0x4 shell/lib.a(ash.o)
 .bss.localvars
                0x000797a4        0x4 shell/lib.a(ash.o)
 .bss.parsenleft
                0x000797a8        0x4 shell/lib.a(ash.o)
 .bss.parselleft
                0x000797ac        0x4 shell/lib.a(ash.o)
 .bss.parsenextc
                0x000797b0        0x4 shell/lib.a(ash.o)
 .bss.checkkwd  0x000797b4        0x4 shell/lib.a(ash.o)
 .bss.tokpushback
                0x000797b8        0x4 shell/lib.a(ash.o)
 .bss.parsebackquote
                0x000797bc        0x4 shell/lib.a(ash.o)
 .bss.quoteflag
                0x000797c0        0x4 shell/lib.a(ash.o)
 .bss.lasttoken
                0x000797c4        0x4 shell/lib.a(ash.o)
 .bss.heredoclist
                0x000797c8        0x4 shell/lib.a(ash.o)
 .bss.wordtext  0x000797cc        0x4 shell/lib.a(ash.o)
 .bss.backquotelist
                0x000797d0        0x4 shell/lib.a(ash.o)
 .bss.redirnode
                0x000797d4        0x4 shell/lib.a(ash.o)
 .bss.heredoc   0x000797d8        0x4 shell/lib.a(ash.o)
 .bss.prev_chk_var_recursive
                0x000797dc        0x4 shell/lib.a(ash.o)
 .bss.ash_ptr_to_globals_misc
                0x000797e0        0x4 shell/lib.a(ash_ptr_hack.o)
                0x000797e0                ash_ptr_to_globals_misc
 .bss.ash_ptr_to_globals_memstack
                0x000797e4        0x4 shell/lib.a(ash_ptr_hack.o)
                0x000797e4                ash_ptr_to_globals_memstack
 .bss.ash_ptr_to_globals_var
                0x000797e8        0x4 shell/lib.a(ash_ptr_hack.o)
                0x000797e8                ash_ptr_to_globals_var
 .bss.warned.0  0x000797ec        0x4 archival/lib.a(tar.o)
 .bss.test_ptr_to_statics
                0x000797f0        0x4 coreutils/lib.a(test_ptr_hack.o)
                0x000797f0                test_ptr_to_statics
 .bss.passwd.0  0x000797f4        0x4 libbb/lib.a(bb_askpass.o)
 .bss.opt_complementary
                0x000797f8        0x4 libbb/lib.a(getopt32.o)
                0x000797f8                opt_complementary
 .bss.applet_long_options
                0x000797fc        0x4 libbb/lib.a(getopt32.o)
                0x000797fc                applet_long_options
 .bss.option_mask32
                0x00079800        0x4 libbb/lib.a(getopt32.o)
                0x00079800                option_mask32
 .bss.str.3     0x00079804       0x15 libbb/lib.a(human_readable.o)
 *fill*         0x00079819        0x3 00
 .bss.ino_dev_hashtable
                0x0007981c        0x4 libbb/lib.a(inode_hash.o)
 .bss.lineedit_ptr_to_statics
                0x00079820        0x4 libbb/lib.a(lineedit_ptr_hack.o)
                0x00079820                lineedit_ptr_to_statics
 .bss.buf.0     0x00079824        0xc libbb/lib.a(mode_string.o)
 .bss.wrote_pidfile
                0x00079830        0x4 libbb/lib.a(pidfile.o)
                0x00079830                wrote_pidfile
 .bss.username  0x00079834        0x8 libbb/lib.a(procps.o)
 .bss.groupname
                0x0007983c        0x8 libbb/lib.a(procps.o)
 *(SORT(COMMON))
                0x00079844                . = ALIGN (0x4)
                0x00079844                . = ALIGN (0x4)
                0x00079844                _end = .
                0x00079844                _bss_end__ = .
                0x00079844                __bss_end__ = .
                0x00079844                __end__ = .
                0x00079844                PROVIDE (end, .)
                0x00079844                . = DATA_SEGMENT_END (.)

.stab
 *(SORT(.stab))

.stabstr
 *(SORT(.stabstr))

.stab.excl
 *(SORT(.stab.excl))

.stab.exclstr
 *(SORT(.stab.exclstr))

.stab.index
 *(SORT(.stab.index))

.stab.indexstr
 *(SORT(.stab.indexstr))

.comment        0x00000000     0x1116
 *(SORT(.comment))
 .comment       0x00000000       0x12 /home/devicenull/ipmi/SDK/ToolChain/Host/HERMON/gcc-3.4.4-glibc-2.3.5-armv4/arm-linux/bin/../lib/gcc/arm-linux/3.4.4/../../../../arm-linux/lib/crt1.o
 .comment       0x00000012       0x12 /home/devicenull/ipmi/SDK/ToolChain/Host/HERMON/gcc-3.4.4-glibc-2.3.5-armv4/arm-linux/bin/../lib/gcc/arm-linux/3.4.4/../../../../arm-linux/lib/crti.o
 .comment       0x00000024       0x12 /home/devicenull/ipmi/SDK/ToolChain/Host/HERMON/gcc-3.4.4-glibc-2.3.5-armv4/arm-linux/bin/../lib/gcc/arm-linux/3.4.4/crtbegin.o
 .comment       0x00000036       0x12 applets/built-in.o
 .comment       0x00000048       0x12 libbb/lib.a(appletlib.o)
 .comment       0x0000005a       0x12 libbb/lib.a(bb_basename.o)
 .comment       0x0000006c       0x12 libbb/lib.a(bb_strtonum.o)
 .comment       0x0000007e       0x12 libbb/lib.a(concat_path_file.o)
 .comment       0x00000090       0x12 libbb/lib.a(default_error_retval.o)
 .comment       0x000000a2       0x12 libbb/lib.a(error_msg_and_die.o)
 .comment       0x000000b4       0x12 libbb/lib.a(full_write.o)
 .comment       0x000000c6       0x12 libbb/lib.a(get_last_path_component.o)
 .comment       0x000000d8       0x12 libbb/lib.a(last_char_is.o)
 .comment       0x000000ea       0x12 libbb/lib.a(messages.o)
 .comment       0x000000fc       0x12 libbb/lib.a(perror_msg.o)
 .comment       0x0000010e       0x12 libbb/lib.a(perror_msg_and_die.o)
 .comment       0x00000120       0x12 libbb/lib.a(ptr_to_globals.o)
 .comment       0x00000132       0x12 libbb/lib.a(safe_write.o)
 .comment       0x00000144       0x12 libbb/lib.a(skip_whitespace.o)
 .comment       0x00000156       0x12 libbb/lib.a(verror_msg.o)
 .comment       0x00000168       0x12 libbb/lib.a(wfopen.o)
 .comment       0x0000017a       0x12 libbb/lib.a(xfunc_die.o)
 .comment       0x0000018c       0x12 libbb/lib.a(xfuncs.o)
 .comment       0x0000019e       0x12 libbb/lib.a(xfuncs_printf.o)
 .comment       0x000001b0       0x12 libbb/lib.a(xreadlink.o)
 .comment       0x000001c2       0x12 libbb/lib.a(copyfd.o)
 .comment       0x000001d4       0x12 libbb/lib.a(error_msg.o)
 .comment       0x000001e6       0x12 libbb/lib.a(read.o)
 .comment       0x000001f8       0x12 libbb/lib.a(safe_poll.o)
 .comment       0x0000020a       0x12 loginutils/lib.a(login.o)
 .comment       0x0000021c       0x12 loginutils/lib.a(passwd.o)
 .comment       0x0000022e       0x12 miscutils/lib.a(bbconfig.o)
 .comment       0x00000240       0x12 miscutils/lib.a(mountpoint.o)
 .comment       0x00000252       0x12 miscutils/lib.a(mt.o)
 .comment       0x00000264       0x12 miscutils/lib.a(rx.o)
 .comment       0x00000276       0x12 miscutils/lib.a(setsid.o)
 .comment       0x00000288       0x12 modutils/lib.a(insmod.o)
 .comment       0x0000029a       0x12 modutils/lib.a(lsmod.o)
 .comment       0x000002ac       0x12 modutils/lib.a(rmmod.o)
 .comment       0x000002be       0x12 networking/lib.a(arp.o)
 .comment       0x000002d0       0x12 networking/lib.a(arping.o)
 .comment       0x000002e2       0x12 networking/lib.a(hostname.o)
 .comment       0x000002f4       0x12 networking/lib.a(ifconfig.o)
 .comment       0x00000306       0x12 networking/lib.a(ifenslave.o)
 .comment       0x00000318       0x12 networking/lib.a(ifupdown.o)
 .comment       0x0000032a       0x12 networking/lib.a(interface.o)
 .comment       0x0000033c       0x12 networking/lib.a(ip.o)
 .comment       0x0000034e       0x12 networking/lib.a(netstat.o)
 .comment       0x00000360       0x12 networking/lib.a(ping.o)
 .comment       0x00000372       0x12 networking/lib.a(route.o)
 .comment       0x00000384       0x12 networking/lib.a(sendmail.o)
 .comment       0x00000396       0x12 networking/lib.a(telnetd.o)
 .comment       0x000003a8       0x12 networking/lib.a(tftp.o)
 .comment       0x000003ba       0x12 networking/lib.a(traceroute.o)
 .comment       0x000003cc       0x12 networking/lib.a(vconfig.o)
 .comment       0x000003de       0x12 networking/lib.a(wget.o)
 .comment       0x000003f0       0x12 networking/libiproute/lib.a(ip_parse_common_args.o)
 .comment       0x00000402       0x12 networking/libiproute/lib.a(ipaddress.o)
 .comment       0x00000414       0x12 networking/libiproute/lib.a(iplink.o)
 .comment       0x00000426       0x12 networking/libiproute/lib.a(iproute.o)
 .comment       0x00000438       0x12 networking/libiproute/lib.a(libnetlink.o)
 .comment       0x0000044a       0x12 networking/libiproute/lib.a(ll_addr.o)
 .comment       0x0000045c       0x12 networking/libiproute/lib.a(ll_map.o)
 .comment       0x0000046e       0x12 networking/libiproute/lib.a(ll_types.o)
 .comment       0x00000480       0x12 networking/libiproute/lib.a(rt_names.o)
 .comment       0x00000492       0x12 networking/libiproute/lib.a(rtm_map.o)
 .comment       0x000004a4       0x12 networking/libiproute/lib.a(utils.o)
 .comment       0x000004b6       0x12 networking/udhcp/lib.a(dhcpc.o)
 .comment       0x000004c8       0x12 networking/udhcp/lib.a(options.o)
 .comment       0x000004da       0x12 networking/udhcp/lib.a(packet.o)
 .comment       0x000004ec       0x12 networking/udhcp/lib.a(script.o)
 .comment       0x000004fe       0x12 networking/udhcp/lib.a(signalpipe.o)
 .comment       0x00000510       0x12 networking/udhcp/lib.a(socket.o)
 .comment       0x00000522       0x12 networking/udhcp/lib.a(arpping.o)
 .comment       0x00000534       0x12 networking/udhcp/lib.a(clientpacket.o)
 .comment       0x00000546       0x12 networking/udhcp/lib.a(clientsocket.o)
 .comment       0x00000558       0x12 networking/udhcp/lib.a(common.o)
 .comment       0x0000056a       0x12 networking/udhcp/lib.a(domain_codec.o)
 .comment       0x0000057c       0x12 procps/lib.a(kill.o)
 .comment       0x0000058e       0x12 procps/lib.a(ps.o)
 .comment       0x000005a0       0x12 procps/lib.a(top.o)
 .comment       0x000005b2       0x12 shell/lib.a(ash.o)
 .comment       0x000005c4       0x12 shell/lib.a(ash_ptr_hack.o)
 .comment       0x000005d6       0x12 util-linux/lib.a(dmesg.o)
 .comment       0x000005e8       0x12 util-linux/lib.a(mount.o)
 .comment       0x000005fa       0x12 util-linux/lib.a(pivot_root.o)
 .comment       0x0000060c       0x12 util-linux/lib.a(script.o)
 .comment       0x0000061e       0x12 util-linux/lib.a(umount.o)
 .comment       0x00000630       0x12 archival/lib.a(bbunzip.o)
 .comment       0x00000642       0x12 archival/lib.a(gzip.o)
 .comment       0x00000654       0x12 archival/lib.a(tar.o)
 .comment       0x00000666       0x12 archival/lib.a(unzip.o)
 .comment       0x00000678       0x12 archival/libunarchive/lib.a(data_extract_all.o)
 .comment       0x0000068a       0x12 archival/libunarchive/lib.a(data_extract_to_stdout.o)
 .comment       0x0000069c       0x12 archival/libunarchive/lib.a(data_skip.o)
 .comment       0x000006ae       0x12 archival/libunarchive/lib.a(decompress_bunzip2.o)
 .comment       0x000006c0       0x12 archival/libunarchive/lib.a(decompress_uncompress.o)
 .comment       0x000006d2       0x12 archival/libunarchive/lib.a(decompress_unlzma.o)
 .comment       0x000006e4       0x12 archival/libunarchive/lib.a(decompress_unzip.o)
 .comment       0x000006f6       0x12 archival/libunarchive/lib.a(filter_accept_reject_list.o)
 .comment       0x00000708       0x12 archival/libunarchive/lib.a(find_list_entry.o)
 .comment       0x0000071a       0x12 archival/libunarchive/lib.a(get_header_tar.o)
 .comment       0x0000072c       0x12 archival/libunarchive/lib.a(get_header_tar_bz2.o)
 .comment       0x0000073e       0x12 archival/libunarchive/lib.a(get_header_tar_gz.o)
 .comment       0x00000750       0x12 archival/libunarchive/lib.a(get_header_tar_lzma.o)
 .comment       0x00000762       0x12 archival/libunarchive/lib.a(header_list.o)
 .comment       0x00000774       0x12 archival/libunarchive/lib.a(header_verbose_list.o)
 .comment       0x00000786       0x12 archival/libunarchive/lib.a(init_handle.o)
 .comment       0x00000798       0x12 archival/libunarchive/lib.a(open_transformer.o)
 .comment       0x000007aa       0x12 archival/libunarchive/lib.a(seek_by_jump.o)
 .comment       0x000007bc       0x12 archival/libunarchive/lib.a(seek_by_read.o)
 .comment       0x000007ce       0x12 archival/libunarchive/lib.a(data_align.o)
 .comment       0x000007e0       0x12 archival/libunarchive/lib.a(filter_accept_all.o)
 .comment       0x000007f2       0x12 archival/libunarchive/lib.a(header_skip.o)
 .comment       0x00000804       0x12 console-tools/lib.a(reset.o)
 .comment       0x00000816       0x12 coreutils/lib.a(cat.o)
 .comment       0x00000828       0x12 coreutils/lib.a(chmod.o)
 .comment       0x0000083a       0x12 coreutils/lib.a(chown.o)
 .comment       0x0000084c       0x12 coreutils/lib.a(cp.o)
 .comment       0x0000085e       0x12 coreutils/lib.a(dd.o)
 .comment       0x00000870       0x12 coreutils/lib.a(df.o)
 .comment       0x00000882       0x12 coreutils/lib.a(du.o)
 .comment       0x00000894       0x12 coreutils/lib.a(echo.o)
 .comment       0x000008a6       0x12 coreutils/lib.a(ln.o)
 .comment       0x000008b8       0x12 coreutils/lib.a(ls.o)
 .comment       0x000008ca       0x12 coreutils/lib.a(mkdir.o)
 .comment       0x000008dc       0x12 coreutils/lib.a(mknod.o)
 .comment       0x000008ee       0x12 coreutils/lib.a(mv.o)
 .comment       0x00000900       0x12 coreutils/lib.a(nice.o)
 .comment       0x00000912       0x12 coreutils/lib.a(printf.o)
 .comment       0x00000924       0x12 coreutils/lib.a(pwd.o)
 .comment       0x00000936       0x12 coreutils/lib.a(realpath.o)
 .comment       0x00000948       0x12 coreutils/lib.a(rm.o)
 .comment       0x0000095a       0x12 coreutils/lib.a(sleep.o)
 .comment       0x0000096c       0x12 coreutils/lib.a(test.o)
 .comment       0x0000097e       0x12 coreutils/lib.a(test_ptr_hack.o)
 .comment       0x00000990       0x12 coreutils/lib.a(touch.o)
 .comment       0x000009a2       0x12 coreutils/lib.a(uname.o)
 .comment       0x000009b4       0x12 coreutils/lib.a(usleep.o)
 .comment       0x000009c6       0x12 coreutils/libcoreutils/lib.a(cp_mv_stat.o)
 .comment       0x000009d8       0x12 coreutils/libcoreutils/lib.a(getopt_mk_fifo_nod.o)
 .comment       0x000009ea       0x12 debianutils/lib.a(mktemp.o)
 .comment       0x000009fc       0x12 debianutils/lib.a(pipe_progress.o)
 .comment       0x00000a0e       0x12 debianutils/lib.a(run_parts.o)
 .comment       0x00000a20       0x12 debianutils/lib.a(start_stop_daemon.o)
 .comment       0x00000a32       0x12 debianutils/lib.a(which.o)
 .comment       0x00000a44       0x12 editors/lib.a(awk.o)
 .comment       0x00000a56       0x12 editors/lib.a(sed.o)
 .comment       0x00000a68       0x12 findutils/lib.a(grep.o)
 .comment       0x00000a7a       0x12 init/lib.a(halt.o)
 .comment       0x00000a8c       0x12 init/lib.a(init.o)
 .comment       0x00000a9e       0x12 init/lib.a(mesg.o)
 .comment       0x00000ab0       0x12 libbb/lib.a(ask_confirmation.o)
 .comment       0x00000ac2       0x12 libbb/lib.a(bb_askpass.o)
 .comment       0x00000ad4       0x12 libbb/lib.a(bb_do_delay.o)
 .comment       0x00000ae6       0x12 libbb/lib.a(bb_pwd.o)
 .comment       0x00000af8       0x12 libbb/lib.a(bb_strtod.o)
 .comment       0x00000b0a       0x12 libbb/lib.a(change_identity.o)
 .comment       0x00000b1c       0x12 libbb/lib.a(chomp.o)
 .comment       0x00000b2e       0x12 libbb/lib.a(compare_string_array.o)
 .comment       0x00000b40       0x12 libbb/lib.a(concat_subpath_file.o)
 .comment       0x00000b52       0x12 libbb/lib.a(copy_file.o)
 .comment       0x00000b64       0x12 libbb/lib.a(correct_password.o)
 .comment       0x00000b76       0x12 libbb/lib.a(crc32.o)
 .comment       0x00000b88       0x12 libbb/lib.a(create_icmp6_socket.o)
 .comment       0x00000b9a       0x12 libbb/lib.a(create_icmp_socket.o)
 .comment       0x00000bac       0x12 libbb/lib.a(crypt_make_salt.o)
 .comment       0x00000bbe       0x12 libbb/lib.a(device_open.o)
 .comment       0x00000bd0       0x12 libbb/lib.a(execable.o)
 .comment       0x00000be2       0x12 libbb/lib.a(fclose_nonstdin.o)
 .comment       0x00000bf4       0x12 libbb/lib.a(fflush_stdout_and_exit.o)
 .comment       0x00000c06       0x12 libbb/lib.a(fgets_str.o)
 .comment       0x00000c18       0x12 libbb/lib.a(find_mount_point.o)
 .comment       0x00000c2a       0x12 libbb/lib.a(find_pid_by_name.o)
 .comment       0x00000c3c       0x12 libbb/lib.a(get_line_from_file.o)
 .comment       0x00000c4e       0x12 libbb/lib.a(getopt32.o)
 .comment       0x00000c60       0x12 libbb/lib.a(getpty.o)
 .comment       0x00000c72       0x12 libbb/lib.a(herror_msg.o)
 .comment       0x00000c84       0x12 libbb/lib.a(herror_msg_and_die.o)
 .comment       0x00000c96       0x12 libbb/lib.a(human_readable.o)
 .comment       0x00000ca8       0x12 libbb/lib.a(inet_common.o)
 .comment       0x00000cba       0x12 libbb/lib.a(info_msg.o)
 .comment       0x00000ccc       0x12 libbb/lib.a(inode_hash.o)
 .comment       0x00000cde       0x12 libbb/lib.a(isdirectory.o)
 .comment       0x00000cf0       0x12 libbb/lib.a(kernel_version.o)
 .comment       0x00000d02       0x12 libbb/lib.a(lineedit.o)
 .comment       0x00000d14       0x12 libbb/lib.a(lineedit_ptr_hack.o)
 .comment       0x00000d26       0x12 libbb/lib.a(llist.o)
 .comment       0x00000d38       0x12 libbb/lib.a(login.o)
 .comment       0x00000d4a       0x12 libbb/lib.a(loop.o)
 .comment       0x00000d5c       0x12 libbb/lib.a(make_directory.o)
 .comment       0x00000d6e       0x12 libbb/lib.a(makedev.o)
 .comment       0x00000d80       0x12 libbb/lib.a(match_fstype.o)
 .comment       0x00000d92       0x12 libbb/lib.a(mode_string.o)
 .comment       0x00000da4       0x12 libbb/lib.a(mtab_file.o)
 .comment       0x00000db6       0x12 libbb/lib.a(obscure.o)
 .comment       0x00000dc8       0x12 libbb/lib.a(parse_config.o)
 .comment       0x00000dda       0x12 libbb/lib.a(parse_mode.o)
 .comment       0x00000dec       0x12 libbb/lib.a(perror_nomsg_and_die.o)
 .comment       0x00000dfe       0x12 libbb/lib.a(pidfile.o)
 .comment       0x00000e10       0x12 libbb/lib.a(print_flags.o)
 .comment       0x00000e22       0x12 libbb/lib.a(printable.o)
 .comment       0x00000e34       0x12 libbb/lib.a(process_escape_sequence.o)
 .comment       0x00000e46       0x12 libbb/lib.a(procps.o)
 .comment       0x00000e58       0x12 libbb/lib.a(pw_encrypt.o)
 .comment       0x00000e6a       0x12 libbb/lib.a(recursive_action.o)
 .comment       0x00000e7c       0x12 libbb/lib.a(remove_file.o)
 .comment       0x00000e8e       0x12 libbb/lib.a(run_shell.o)
 .comment       0x00000ea0       0x12 libbb/lib.a(safe_gethostname.o)
 .comment       0x00000eb2       0x12 libbb/lib.a(safe_strncpy.o)
 .comment       0x00000ec4       0x12 libbb/lib.a(setup_environment.o)
 .comment       0x00000ed6       0x12 libbb/lib.a(signals.o)
 .comment       0x00000ee8       0x12 libbb/lib.a(simplify_path.o)
 .comment       0x00000efa       0x12 libbb/lib.a(str_tolower.o)
 .comment       0x00000f0c       0x12 libbb/lib.a(time.o)
 .comment       0x00000f1e       0x12 libbb/lib.a(u_signal_names.o)
 .comment       0x00000f30       0x12 libbb/lib.a(update_passwd.o)
 .comment       0x00000f42       0x12 libbb/lib.a(uuencode.o)
 .comment       0x00000f54       0x12 libbb/lib.a(vfork_daemon_rexec.o)
 .comment       0x00000f66       0x12 libbb/lib.a(wfopen_input.o)
 .comment       0x00000f78       0x12 libbb/lib.a(xatonum.o)
 .comment       0x00000f8a       0x12 libbb/lib.a(xconnect.o)
 .comment       0x00000f9c       0x12 libbb/lib.a(xgetcwd.o)
 .comment       0x00000fae       0x12 libbb/lib.a(xgethostbyname.o)
 .comment       0x00000fc0       0x12 libbb/lib.a(xrealloc_vector.o)
 .comment       0x00000fd2       0x12 libbb/lib.a(xregcomp.o)
 .comment       0x00000fe4       0x12 libbb/lib.a(bb_qsort.o)
 .comment       0x00000ff6       0x12 libpwdgrp/lib.a(uidgid_get.o)
 .comment       0x00001008       0x12 /home/devicenull/ipmi/SDK/ToolChain/Host/HERMON/gcc-3.4.4-glibc-2.3.5-armv4/arm-linux/bin/../lib/gcc/arm-linux/3.4.4/libgcc.a(_lshrdi3.oS)
 .comment       0x0000101a       0x12 /home/devicenull/ipmi/SDK/ToolChain/Host/HERMON/gcc-3.4.4-glibc-2.3.5-armv4/arm-linux/bin/../lib/gcc/arm-linux/3.4.4/libgcc.a(_ashldi3.oS)
 .comment       0x0000102c       0x12 /home/devicenull/ipmi/SDK/ToolChain/Host/HERMON/gcc-3.4.4-glibc-2.3.5-armv4/arm-linux/bin/../lib/gcc/arm-linux/3.4.4/libgcc.a(_ashrdi3.oS)
 .comment       0x0000103e       0x12 /home/devicenull/ipmi/SDK/ToolChain/Host/HERMON/gcc-3.4.4-glibc-2.3.5-armv4/arm-linux/bin/../lib/gcc/arm-linux/3.4.4/libgcc.a(_cmpdi2.oS)
 .comment       0x00001050       0x12 /home/devicenull/ipmi/SDK/ToolChain/Host/HERMON/gcc-3.4.4-glibc-2.3.5-armv4/arm-linux/bin/../lib/gcc/arm-linux/3.4.4/libgcc.a(_divdi3.oS)
 .comment       0x00001062       0x12 /home/devicenull/ipmi/SDK/ToolChain/Host/HERMON/gcc-3.4.4-glibc-2.3.5-armv4/arm-linux/bin/../lib/gcc/arm-linux/3.4.4/libgcc.a(_moddi3.oS)
 .comment       0x00001074       0x12 /home/devicenull/ipmi/SDK/ToolChain/Host/HERMON/gcc-3.4.4-glibc-2.3.5-armv4/arm-linux/bin/../lib/gcc/arm-linux/3.4.4/libgcc.a(_udivdi3.oS)
 .comment       0x00001086       0x12 /home/devicenull/ipmi/SDK/ToolChain/Host/HERMON/gcc-3.4.4-glibc-2.3.5-armv4/arm-linux/bin/../lib/gcc/arm-linux/3.4.4/libgcc.a(_umoddi3.oS)
 .comment       0x00001098       0x12 /home/devicenull/ipmi/SDK/ToolChain/Host/HERMON/gcc-3.4.4-glibc-2.3.5-armv4/arm-linux/bin/../lib/gcc/arm-linux/3.4.4/libgcc.a(_clz.oS)
 .comment       0x000010aa       0x12 /home/devicenull/ipmi/SDK/ToolChain/Host/HERMON/gcc-3.4.4-glibc-2.3.5-armv4/arm-linux/bin/../lib/gcc/arm-linux/3.4.4/../../../../arm-linux/lib/libc_nonshared.a(elf-init.oST)
 .comment       0x000010bc       0x12 /home/devicenull/ipmi/SDK/ToolChain/Host/HERMON/gcc-3.4.4-glibc-2.3.5-armv4/arm-linux/bin/../lib/gcc/arm-linux/3.4.4/../../../../arm-linux/lib/libc_nonshared.a(atexit.oST)
 .comment       0x000010ce       0x12 /home/devicenull/ipmi/SDK/ToolChain/Host/HERMON/gcc-3.4.4-glibc-2.3.5-armv4/arm-linux/bin/../lib/gcc/arm-linux/3.4.4/../../../../arm-linux/lib/libc_nonshared.a(stat64.oST)
 .comment       0x000010e0       0x12 /home/devicenull/ipmi/SDK/ToolChain/Host/HERMON/gcc-3.4.4-glibc-2.3.5-armv4/arm-linux/bin/../lib/gcc/arm-linux/3.4.4/../../../../arm-linux/lib/libc_nonshared.a(lstat64.oST)
 .comment       0x000010f2       0x12 /home/devicenull/ipmi/SDK/ToolChain/Host/HERMON/gcc-3.4.4-glibc-2.3.5-armv4/arm-linux/bin/../lib/gcc/arm-linux/3.4.4/crtend.o
 .comment       0x00001104       0x12 /home/devicenull/ipmi/SDK/ToolChain/Host/HERMON/gcc-3.4.4-glibc-2.3.5-armv4/arm-linux/bin/../lib/gcc/arm-linux/3.4.4/../../../../arm-linux/lib/crtn.o

.debug
 *(SORT(.debug))

.line
 *(SORT(.line))

.debug_srcinfo
 *(SORT(.debug_srcinfo))

.debug_sfnames
 *(SORT(.debug_sfnames))

.debug_aranges  0x00000000      0x198
 *(SORT(.debug_aranges))
 .debug_aranges
                0x00000000       0x30 /home/devicenull/ipmi/SDK/ToolChain/Host/HERMON/gcc-3.4.4-glibc-2.3.5-armv4/arm-linux/bin/../lib/gcc/arm-linux/3.4.4/../../../../arm-linux/lib/crti.o
 .debug_aranges
                0x00000030       0x20 /home/devicenull/ipmi/SDK/ToolChain/Host/HERMON/gcc-3.4.4-glibc-2.3.5-armv4/arm-linux/bin/../lib/gcc/arm-linux/3.4.4/libgcc.a(_udivsi3.oS)
 .debug_aranges
                0x00000050       0x20 /home/devicenull/ipmi/SDK/ToolChain/Host/HERMON/gcc-3.4.4-glibc-2.3.5-armv4/arm-linux/bin/../lib/gcc/arm-linux/3.4.4/libgcc.a(_divsi3.oS)
 .debug_aranges
                0x00000070       0x20 /home/devicenull/ipmi/SDK/ToolChain/Host/HERMON/gcc-3.4.4-glibc-2.3.5-armv4/arm-linux/bin/../lib/gcc/arm-linux/3.4.4/libgcc.a(_umodsi3.oS)
 .debug_aranges
                0x00000090       0x20 /home/devicenull/ipmi/SDK/ToolChain/Host/HERMON/gcc-3.4.4-glibc-2.3.5-armv4/arm-linux/bin/../lib/gcc/arm-linux/3.4.4/libgcc.a(_modsi3.oS)
 .debug_aranges
                0x000000b0       0x20 /home/devicenull/ipmi/SDK/ToolChain/Host/HERMON/gcc-3.4.4-glibc-2.3.5-armv4/arm-linux/bin/../lib/gcc/arm-linux/3.4.4/libgcc.a(_dvmd_lnx.oS)
 .debug_aranges
                0x000000d0       0x20 /home/devicenull/ipmi/SDK/ToolChain/Host/HERMON/gcc-3.4.4-glibc-2.3.5-armv4/arm-linux/bin/../lib/gcc/arm-linux/3.4.4/libgcc.a(_addsubdf3.oS)
 .debug_aranges
                0x000000f0       0x20 /home/devicenull/ipmi/SDK/ToolChain/Host/HERMON/gcc-3.4.4-glibc-2.3.5-armv4/arm-linux/bin/../lib/gcc/arm-linux/3.4.4/libgcc.a(_muldivdf3.oS)
 .debug_aranges
                0x00000110       0x20 /home/devicenull/ipmi/SDK/ToolChain/Host/HERMON/gcc-3.4.4-glibc-2.3.5-armv4/arm-linux/bin/../lib/gcc/arm-linux/3.4.4/libgcc.a(_cmpdf2.oS)
 .debug_aranges
                0x00000130       0x20 /home/devicenull/ipmi/SDK/ToolChain/Host/HERMON/gcc-3.4.4-glibc-2.3.5-armv4/arm-linux/bin/../lib/gcc/arm-linux/3.4.4/libgcc.a(_fixdfsi.oS)
 .debug_aranges
                0x00000150       0x20 /home/devicenull/ipmi/SDK/ToolChain/Host/HERMON/gcc-3.4.4-glibc-2.3.5-armv4/arm-linux/bin/../lib/gcc/arm-linux/3.4.4/libgcc.a(_fixunsdfsi.oS)
 .debug_aranges
                0x00000170       0x28 /home/devicenull/ipmi/SDK/ToolChain/Host/HERMON/gcc-3.4.4-glibc-2.3.5-armv4/arm-linux/bin/../lib/gcc/arm-linux/3.4.4/../../../../arm-linux/lib/crtn.o

.debug_pubnames
 *(SORT(.debug_pubnames))

.debug_info     0x00000000      0xaeb
 *(SORT(.debug_info) .gnu.linkonce.wi.*)
 .debug_info    0x00000000       0xd7 /home/devicenull/ipmi/SDK/ToolChain/Host/HERMON/gcc-3.4.4-glibc-2.3.5-armv4/arm-linux/bin/../lib/gcc/arm-linux/3.4.4/../../../../arm-linux/lib/crti.o
 .debug_info    0x000000d7       0xed /home/devicenull/ipmi/SDK/ToolChain/Host/HERMON/gcc-3.4.4-glibc-2.3.5-armv4/arm-linux/bin/../lib/gcc/arm-linux/3.4.4/libgcc.a(_udivsi3.oS)
 .debug_info    0x000001c4       0xed /home/devicenull/ipmi/SDK/ToolChain/Host/HERMON/gcc-3.4.4-glibc-2.3.5-armv4/arm-linux/bin/../lib/gcc/arm-linux/3.4.4/libgcc.a(_divsi3.oS)
 .debug_info    0x000002b1       0xed /home/devicenull/ipmi/SDK/ToolChain/Host/HERMON/gcc-3.4.4-glibc-2.3.5-armv4/arm-linux/bin/../lib/gcc/arm-linux/3.4.4/libgcc.a(_umodsi3.oS)
 .debug_info    0x0000039e       0xed /home/devicenull/ipmi/SDK/ToolChain/Host/HERMON/gcc-3.4.4-glibc-2.3.5-armv4/arm-linux/bin/../lib/gcc/arm-linux/3.4.4/libgcc.a(_modsi3.oS)
 .debug_info    0x0000048b       0xed /home/devicenull/ipmi/SDK/ToolChain/Host/HERMON/gcc-3.4.4-glibc-2.3.5-armv4/arm-linux/bin/../lib/gcc/arm-linux/3.4.4/libgcc.a(_dvmd_lnx.oS)
 .debug_info    0x00000578       0xec /home/devicenull/ipmi/SDK/ToolChain/Host/HERMON/gcc-3.4.4-glibc-2.3.5-armv4/arm-linux/bin/../lib/gcc/arm-linux/3.4.4/libgcc.a(_addsubdf3.oS)
 .debug_info    0x00000664       0xec /home/devicenull/ipmi/SDK/ToolChain/Host/HERMON/gcc-3.4.4-glibc-2.3.5-armv4/arm-linux/bin/../lib/gcc/arm-linux/3.4.4/libgcc.a(_muldivdf3.oS)
 .debug_info    0x00000750       0xec /home/devicenull/ipmi/SDK/ToolChain/Host/HERMON/gcc-3.4.4-glibc-2.3.5-armv4/arm-linux/bin/../lib/gcc/arm-linux/3.4.4/libgcc.a(_cmpdf2.oS)
 .debug_info    0x0000083c       0xec /home/devicenull/ipmi/SDK/ToolChain/Host/HERMON/gcc-3.4.4-glibc-2.3.5-armv4/arm-linux/bin/../lib/gcc/arm-linux/3.4.4/libgcc.a(_fixdfsi.oS)
 .debug_info    0x00000928       0xec /home/devicenull/ipmi/SDK/ToolChain/Host/HERMON/gcc-3.4.4-glibc-2.3.5-armv4/arm-linux/bin/../lib/gcc/arm-linux/3.4.4/libgcc.a(_fixunsdfsi.oS)
 .debug_info    0x00000a14       0xd7 /home/devicenull/ipmi/SDK/ToolChain/Host/HERMON/gcc-3.4.4-glibc-2.3.5-armv4/arm-linux/bin/../lib/gcc/arm-linux/3.4.4/../../../../arm-linux/lib/crtn.o

.debug_abbrev   0x00000000       0xe8
 *(SORT(.debug_abbrev))
 .debug_abbrev  0x00000000       0x10 /home/devicenull/ipmi/SDK/ToolChain/Host/HERMON/gcc-3.4.4-glibc-2.3.5-armv4/arm-linux/bin/../lib/gcc/arm-linux/3.4.4/../../../../arm-linux/lib/crti.o
 .debug_abbrev  0x00000010       0x14 /home/devicenull/ipmi/SDK/ToolChain/Host/HERMON/gcc-3.4.4-glibc-2.3.5-armv4/arm-linux/bin/../lib/gcc/arm-linux/3.4.4/libgcc.a(_udivsi3.oS)
 .debug_abbrev  0x00000024       0x14 /home/devicenull/ipmi/SDK/ToolChain/Host/HERMON/gcc-3.4.4-glibc-2.3.5-armv4/arm-linux/bin/../lib/gcc/arm-linux/3.4.4/libgcc.a(_divsi3.oS)
 .debug_abbrev  0x00000038       0x14 /home/devicenull/ipmi/SDK/ToolChain/Host/HERMON/gcc-3.4.4-glibc-2.3.5-armv4/arm-linux/bin/../lib/gcc/arm-linux/3.4.4/libgcc.a(_umodsi3.oS)
 .debug_abbrev  0x0000004c       0x14 /home/devicenull/ipmi/SDK/ToolChain/Host/HERMON/gcc-3.4.4-glibc-2.3.5-armv4/arm-linux/bin/../lib/gcc/arm-linux/3.4.4/libgcc.a(_modsi3.oS)
 .debug_abbrev  0x00000060       0x14 /home/devicenull/ipmi/SDK/ToolChain/Host/HERMON/gcc-3.4.4-glibc-2.3.5-armv4/arm-linux/bin/../lib/gcc/arm-linux/3.4.4/libgcc.a(_dvmd_lnx.oS)
 .debug_abbrev  0x00000074       0x14 /home/devicenull/ipmi/SDK/ToolChain/Host/HERMON/gcc-3.4.4-glibc-2.3.5-armv4/arm-linux/bin/../lib/gcc/arm-linux/3.4.4/libgcc.a(_addsubdf3.oS)
 .debug_abbrev  0x00000088       0x14 /home/devicenull/ipmi/SDK/ToolChain/Host/HERMON/gcc-3.4.4-glibc-2.3.5-armv4/arm-linux/bin/../lib/gcc/arm-linux/3.4.4/libgcc.a(_muldivdf3.oS)
 .debug_abbrev  0x0000009c       0x14 /home/devicenull/ipmi/SDK/ToolChain/Host/HERMON/gcc-3.4.4-glibc-2.3.5-armv4/arm-linux/bin/../lib/gcc/arm-linux/3.4.4/libgcc.a(_cmpdf2.oS)
 .debug_abbrev  0x000000b0       0x14 /home/devicenull/ipmi/SDK/ToolChain/Host/HERMON/gcc-3.4.4-glibc-2.3.5-armv4/arm-linux/bin/../lib/gcc/arm-linux/3.4.4/libgcc.a(_fixdfsi.oS)
 .debug_abbrev  0x000000c4       0x14 /home/devicenull/ipmi/SDK/ToolChain/Host/HERMON/gcc-3.4.4-glibc-2.3.5-armv4/arm-linux/bin/../lib/gcc/arm-linux/3.4.4/libgcc.a(_fixunsdfsi.oS)
 .debug_abbrev  0x000000d8       0x10 /home/devicenull/ipmi/SDK/ToolChain/Host/HERMON/gcc-3.4.4-glibc-2.3.5-armv4/arm-linux/bin/../lib/gcc/arm-linux/3.4.4/../../../../arm-linux/lib/crtn.o

.debug_line     0x00000000      0xb77
 *(SORT(.debug_line))
 .debug_line    0x00000000       0xb4 /home/devicenull/ipmi/SDK/ToolChain/Host/HERMON/gcc-3.4.4-glibc-2.3.5-armv4/arm-linux/bin/../lib/gcc/arm-linux/3.4.4/../../../../arm-linux/lib/crti.o
 .debug_line    0x000000b4       0xc0 /home/devicenull/ipmi/SDK/ToolChain/Host/HERMON/gcc-3.4.4-glibc-2.3.5-armv4/arm-linux/bin/../lib/gcc/arm-linux/3.4.4/libgcc.a(_udivsi3.oS)
 .debug_line    0x00000174       0xcc /home/devicenull/ipmi/SDK/ToolChain/Host/HERMON/gcc-3.4.4-glibc-2.3.5-armv4/arm-linux/bin/../lib/gcc/arm-linux/3.4.4/libgcc.a(_divsi3.oS)
 .debug_line    0x00000240       0xb2 /home/devicenull/ipmi/SDK/ToolChain/Host/HERMON/gcc-3.4.4-glibc-2.3.5-armv4/arm-linux/bin/../lib/gcc/arm-linux/3.4.4/libgcc.a(_umodsi3.oS)
 .debug_line    0x000002f2       0xb8 /home/devicenull/ipmi/SDK/ToolChain/Host/HERMON/gcc-3.4.4-glibc-2.3.5-armv4/arm-linux/bin/../lib/gcc/arm-linux/3.4.4/libgcc.a(_modsi3.oS)
 .debug_line    0x000003aa       0xac /home/devicenull/ipmi/SDK/ToolChain/Host/HERMON/gcc-3.4.4-glibc-2.3.5-armv4/arm-linux/bin/../lib/gcc/arm-linux/3.4.4/libgcc.a(_dvmd_lnx.oS)
 .debug_line    0x00000456      0x1da /home/devicenull/ipmi/SDK/ToolChain/Host/HERMON/gcc-3.4.4-glibc-2.3.5-armv4/arm-linux/bin/../lib/gcc/arm-linux/3.4.4/libgcc.a(_addsubdf3.oS)
 .debug_line    0x00000630      0x243 /home/devicenull/ipmi/SDK/ToolChain/Host/HERMON/gcc-3.4.4-glibc-2.3.5-armv4/arm-linux/bin/../lib/gcc/arm-linux/3.4.4/libgcc.a(_muldivdf3.oS)
 .debug_line    0x00000873       0xf8 /home/devicenull/ipmi/SDK/ToolChain/Host/HERMON/gcc-3.4.4-glibc-2.3.5-armv4/arm-linux/bin/../lib/gcc/arm-linux/3.4.4/libgcc.a(_cmpdf2.oS)
 .debug_line    0x0000096b       0xbb /home/devicenull/ipmi/SDK/ToolChain/Host/HERMON/gcc-3.4.4-glibc-2.3.5-armv4/arm-linux/bin/../lib/gcc/arm-linux/3.4.4/libgcc.a(_fixdfsi.oS)
 .debug_line    0x00000a26       0xb8 /home/devicenull/ipmi/SDK/ToolChain/Host/HERMON/gcc-3.4.4-glibc-2.3.5-armv4/arm-linux/bin/../lib/gcc/arm-linux/3.4.4/libgcc.a(_fixunsdfsi.oS)
 .debug_line    0x00000ade       0x99 /home/devicenull/ipmi/SDK/ToolChain/Host/HERMON/gcc-3.4.4-glibc-2.3.5-armv4/arm-linux/bin/../lib/gcc/arm-linux/3.4.4/../../../../arm-linux/lib/crtn.o

.debug_frame
 *(SORT(.debug_frame))

.debug_str
 *(SORT(.debug_str))

.debug_loc
 *(SORT(.debug_loc))

.debug_macinfo
 *(SORT(.debug_macinfo))

.debug_weaknames
 *(SORT(.debug_weaknames))

.debug_funcnames
 *(SORT(.debug_funcnames))

.debug_typenames
 *(SORT(.debug_typenames))

.debug_varnames
 *(SORT(.debug_varnames))

.note.gnu.arm.ident
 *(SORT(.note.gnu.arm.ident))

/DISCARD/
 *(SORT(.note.GNU-stack))
OUTPUT(busybox_unstripped elf32-littlearm)
