Certificate:
    Data:
        Version: 3 (0x2)
        Serial Number: 1 (0x1)
        Signature Algorithm: md5WithRSAEncryption
        Issuer: C=AU, ST=SA, L=Adelaide, O=WASD HTTPd CA Cert, OU=OpenSSL 0.9.7c Testing Only, CN=WASD VMS Hypertext Services/emailAddress=Mark.Daniel@wasd.vsm.com.au
        Validity
            Not Before: Oct  1 19:17:11 2003 GMT
            Not After : Sep 29 19:17:11 2008 GMT
        Subject: C=AU, ST=SA, L=Adelaide, O=WASD HTTPd Server Cert, OU=OpenSSL 0.9.7c Testing Only, CN=WASD VMS Hypertext Services/emailAddress=Mark.Daniel@wasd.vsm.com.au
        Subject Public Key Info:
            Public Key Algorithm: rsaEncryption
            RSA Public Key: (2048 bit)
                Modulus (2048 bit):
                    00:c0:6e:d5:d2:88:78:31:5d:a7:8d:4e:b0:1d:4d:
                    7a:fb:2b:4b:61:07:9a:63:b5:3a:d8:83:87:69:2c:
                    a9:89:5e:e1:53:0d:e9:96:d4:b7:ac:6b:78:62:b2:
                    54:ff:8f:7f:c6:28:e4:98:3f:0c:f7:5f:8d:d2:11:
                    ce:c3:19:81:7e:29:3e:3c:78:41:c7:d1:a8:c4:57:
                    64:f2:ab:78:75:99:4a:d0:c0:37:1e:c3:fd:e5:8b:
                    17:f8:80:c4:4c:e4:09:17:ec:44:92:82:7e:1e:88:
                    0e:a0:b3:55:32:9b:d0:e6:e3:62:3a:2b:39:99:ef:
                    a6:26:80:53:1f:79:62:cc:36:64:6f:ec:85:95:f8:
                    2f:b0:09:20:71:56:b6:0c:b6:1d:5c:cb:f1:8e:17:
                    94:e2:f1:32:3c:42:3b:9c:ae:35:60:d0:d9:78:b9:
                    10:11:21:2d:b1:04:bc:98:d9:56:1c:68:c9:97:46:
                    cd:1a:e6:0b:f1:c1:dd:03:8e:2f:f6:fb:b8:2d:d8:
                    39:60:ae:4d:b6:04:ba:67:fa:b1:23:60:48:f3:3d:
                    ee:50:47:98:8d:e4:39:bb:e0:62:0b:a4:6c:b5:32:
                    78:ab:32:3e:78:52:58:b7:26:3b:be:d9:71:19:ca:
                    29:56:33:f7:2d:13:87:9e:9b:b4:e6:14:8a:e1:c6:
                    e7:07
                Exponent: 65537 (0x10001)
        X509v3 extensions:
            X509v3 Basic Constraints: 
                CA:FALSE
            X509v3 Key Usage: 
                Digital Signature, Non Repudiation, Key Encipherment
            Netscape CA Revocation Url: 
                http://wasd.vsm.com.au/
            Netscape Comment: 
                WASD is GNU-licensed freeware
            X509v3 Subject Key Identifier: 
                BF:62:D6:3C:1E:37:AA:04:BC:3D:68:9C:04:BD:31:08:EE:6A:96:64
            X509v3 Authority Key Identifier: 
                keyid:9E:E2:7A:42:DB:76:EA:9B:61:B4:7E:A8:AB:BC:51:D0:CB:38:93:FA
                DirName:/C=AU/ST=SA/L=Adelaide/O=WASD HTTPd CA Cert/OU=OpenSSL 0.9.7c Testing Only/CN=WASD VMS Hypertext Services/emailAddress=Mark.Daniel@wasd.vsm.com.au
                serial:00

            X509v3 Subject Alternative Name: 
                email:Mark.Daniel@wasd.vsm.com.au
            X509v3 Issuer Alternative Name: 
                email:Mark.Daniel@wasd.vsm.com.au
    Signature Algorithm: md5WithRSAEncryption
        0d:6d:a1:8c:fc:e1:d5:1c:f3:af:2c:e7:98:23:f7:ab:40:de:
        c6:67:05:fe:45:ff:81:c7:d4:32:71:5f:41:32:61:0f:ef:ed:
        bf:6e:10:a5:d0:a0:7f:01:d1:4a:35:ff:b7:c4:3c:80:5f:4f:
        64:71:4e:31:8f:0b:fa:f1:9f:9b:06:10:8f:ef:f0:7d:ee:56:
        bd:39:8a:c2:9d:08:5c:da:8e:b9:c9:2f:6a:91:8d:04:0b:fe:
        4d:6e:47:c3:51:67:32:9f:d1:d7:a3:1b:38:86:a9:31:ee:6e:
        e5:9e:12:20:87:fb:1d:43:b4:1f:40:61:a5:93:88:a1:0e:f5:
        00:e7:33:29:c0:2f:5f:cc:1d:99:f5:77:6c:1b:49:f9:41:a9:
        fd:77:27:a3:14:66:35:75:06:2a:d1:56:54:4f:78:73:1b:22:
        c1:1f:30:93:ae:7a:18:a2:0b:8c:cc:fd:5f:52:62:35:09:a0:
        06:ea:ee:39:b0:ba:8f:a5:3a:9d:ed:6a:a8:64:cc:81:fc:e0:
        ae:0e:87:a7:e9:b6:0a:bc:d7:e3:c1:3f:57:89:5d:df:9e:a7:
        94:c8:76:90:1a:e5:b4:4b:1b:d5:5a:a3:b8:4f:0f:de:5c:33:
        c8:32:34:fa:05:d0:07:37:d9:69:8e:ee:32:cd:a4:19:d6:68:
        9b:04:d6:b6
-----BEGIN CERTIFICATE-----
MIIF2jCCBMKgAwIBAgIBATANBgkqhkiG9w0BAQQFADCBwjELMAkGA1UEBhMCQVUx
CzAJBgNVBAgTAlNBMREwDwYDVQQHEwhBZGVsYWlkZTEbMBkGA1UEChMSV0FTRCBI
VFRQZCBDQSBDZXJ0MSQwIgYDVQQLExtPcGVuU1NMIDAuOS43YyBUZXN0aW5nIE9u
bHkxJDAiBgNVBAMTG1dBU0QgVk1TIEh5cGVydGV4dCBTZXJ2aWNlczEqMCgGCSqG
SIb3DQEJARYbTWFyay5EYW5pZWxAd2FzZC52c20uY29tLmF1MB4XDTAzMTAwMTE5
MTcxMVoXDTA4MDkyOTE5MTcxMVowgcYxCzAJBgNVBAYTAkFVMQswCQYDVQQIEwJT
QTERMA8GA1UEBxMIQWRlbGFpZGUxHzAdBgNVBAoTFldBU0QgSFRUUGQgU2VydmVy
IENlcnQxJDAiBgNVBAsTG09wZW5TU0wgMC45LjdjIFRlc3RpbmcgT25seTEkMCIG
A1UEAxMbV0FTRCBWTVMgSHlwZXJ0ZXh0IFNlcnZpY2VzMSowKAYJKoZIhvcNAQkB
FhtNYXJrLkRhbmllbEB3YXNkLnZzbS5jb20uYXUwggEiMA0GCSqGSIb3DQEBAQUA
A4IBDwAwggEKAoIBAQDAbtXSiHgxXaeNTrAdTXr7K0thB5pjtTrYg4dpLKmJXuFT
DemW1Lesa3hislT/j3/GKOSYPwz3X43SEc7DGYF+KT48eEHH0ajEV2Tyq3h1mUrQ
wDcew/3lixf4gMRM5AkX7ESSgn4eiA6gs1Uym9Dm42I6KzmZ76YmgFMfeWLMNmRv
7IWV+C+wCSBxVrYMth1cy/GOF5Ti8TI8QjucrjVg0Nl4uRARIS2xBLyY2VYcaMmX
Rs0a5gvxwd0Dji/2+7gt2Dlgrk22BLpn+rEjYEjzPe5QR5iN5Dm74GILpGy1Mnir
Mj54Uli3Jju+2XEZyilWM/ctE4eem7TmFIrhxucHAgMBAAGjggHTMIIBzzAJBgNV
HRMEAjAAMAsGA1UdDwQEAwIF4DAmBglghkgBhvhCAQQEGRYXaHR0cDovL3dhc2Qu
dnNtLmNvbS5hdS8wLAYJYIZIAYb4QgENBB8WHVdBU0QgaXMgR05VLWxpY2Vuc2Vk
IGZyZWV3YXJlMB0GA1UdDgQWBBS/YtY8HjeqBLw9aJwEvTEI7mqWZDCB7wYDVR0j
BIHnMIHkgBSe4npC23bqm2G0fqirvFHQyziT+qGByKSBxTCBwjELMAkGA1UEBhMC
QVUxCzAJBgNVBAgTAlNBMREwDwYDVQQHEwhBZGVsYWlkZTEbMBkGA1UEChMSV0FT
RCBIVFRQZCBDQSBDZXJ0MSQwIgYDVQQLExtPcGVuU1NMIDAuOS43YyBUZXN0aW5n
IE9ubHkxJDAiBgNVBAMTG1dBU0QgVk1TIEh5cGVydGV4dCBTZXJ2aWNlczEqMCgG
CSqGSIb3DQEJARYbTWFyay5EYW5pZWxAd2FzZC52c20uY29tLmF1ggEAMCYGA1Ud
EQQfMB2BG01hcmsuRGFuaWVsQHdhc2QudnNtLmNvbS5hdTAmBgNVHRIEHzAdgRtN
YXJrLkRhbmllbEB3YXNkLnZzbS5jb20uYXUwDQYJKoZIhvcNAQEEBQADggEBAA1t
oYz84dUc868s55gj96tA3sZnBf5F/4HH1DJxX0EyYQ/v7b9uEKXQoH8B0Uo1/7fE
PIBfT2RxTjGPC/rxn5sGEI/v8H3uVr05isKdCFzajrnJL2qRjQQL/k1uR8NRZzKf
0dejGziGqTHubuWeEiCH+x1DtB9AYaWTiKEO9QDnMynAL1/MHZn1d2wbSflBqf13
J6MUZjV1BirRVlRPeHMbIsEfMJOuehiiC4zM/V9SYjUJoAbq7jmwuo+lOp3taqhk
zIH84K4Oh6fptgq81+PBP1eJXd+ep5TIdpAa5bRLG9Vao7hPD95cM8gyNPoF0Ac3
2WmO7jLNpBnWaJsE1rY=
-----END CERTIFICATE-----
-----BEGIN RSA PRIVATE KEY-----
MIIEpAIBAAKCAQEAwG7V0oh4MV2njU6wHU16+ytLYQeaY7U62IOHaSypiV7hUw3p
ltS3rGt4YrJU/49/xijkmD8M91+N0hHOwxmBfik+PHhBx9GoxFdk8qt4dZlK0MA3
HsP95YsX+IDETOQJF+xEkoJ+HogOoLNVMpvQ5uNiOis5me+mJoBTH3lizDZkb+yF
lfgvsAkgcVa2DLYdXMvxjheU4vEyPEI7nK41YNDZeLkQESEtsQS8mNlWHGjJl0bN
GuYL8cHdA44v9vu4Ldg5YK5NtgS6Z/qxI2BI8z3uUEeYjeQ5u+BiC6RstTJ4qzI+
eFJYtyY7vtlxGcopVjP3LROHnpu05hSK4cbnBwIDAQABAoIBAFUT66dEPNeej4iT
JJwf+GJ51r7UbLbullDJfiHK5D3e3AIrYX4VGAu8DCKes6O1nwlOZRrGrYXlEj+x
LdfmO/E6bNCxXmvozxPXi8MaeoyLtJ8sjHImtuc4ouV0kNVp8HdKN1sLJJV9E/KK
tv1EFI0wNOqA19uuL6hQDfAZa8va8DIlFZOrkGp++Hs9lI7WizqQdtWEKkQLFMet
yYuB7dAn8RAe9ADRgc0PsLDgIDFcOGOJzu1xjxLxsdHIfUMFAD/4XmsIv3G03E25
UbWFmUXjYl0SU8+TNRLZBqjdVX6gffH3F5BAz8joYUUO6FWchQ2Rz9dc9gdvRthf
QpT+NwkCgYEA3/WxwzoNwDHE74Qg/jqELbRZoh7SHWUh0L9QsVHdFSXEXfuC2qKS
d5sO1TmxC9ovvuDdHTmZUfaikj5+IGPDGm+dL+wGymxZWS/wbs7Tg3+/h/n+6qH9
QRpFaGw8VpugK2DKCC//jeODghCZ5z9ODYjrQORGv1wXSQQBbEgysp0CgYEA2/aA
xZYIUL8GZd2CVrWsk7fJgp397hfm24Wh4Uo2QDRalWk59CjO0GRZ2YxncYkjq/UG
s79nUN01UgBn8/pugi+0WYRISGWqX1l5zvz0eM0skN2djScQBc3XpFZiObTDDu/E
MxKBP1kLtmPc8WgCJD9fy3g6or34Bw8SShfoDPMCgYAMuP1nNMYRNAKXBK+HIbXe
js9EuXGAP/2CyUuBN0BS8jlMiXwuhWvCpalbDZL0NGnf8xA8l8gQ8uzbV/d8SY6M
0uhgD413NF6DBYkoElHLt5ce12HW3GrxptdojjWDSgX4UOBJRMjEu7b9zYmgrGT3
ud57ajxmpImiGTsndpaCtQKBgQCMS0UGwRK8rZofDpE7TNStwuM79Bkp6wTLrwf4
8aR4fuvnsB3OpNiEAf1szCiOObIO01FbBBGZef2wN6IV8vzY/CRDlCOmSXHJLwCK
DLzA79wk6bS7eta1XPzVTGOJ+skOlc7F5F+bT+gwhLE/J991zxYCaMS9V/0CQ5Ke
v3C6EQKBgQCxs1doEQtz3kxj4s75a+xW0Sy100uTRS/r3FZnwHYpDR63+IN4//UE
1AjVzqfGS9p8Mw8qIg6GYvk+4HdGNWHidcSDg3BDA1VKz3YKJIidAy7rjf1TMIoe
N3MoczD0bN9XxNFfvF3NLgQPSR9C7I32wMTko9Nw9SNSP76hcEXwsg==
-----END RSA PRIVATE KEY-----
